(lp0
(lp1
F26.03
aF26.04
aF26.02
aF26.02
aF26.04
aF26.04
aF26.03
aF26.03
aF26.04
aF26.02
aF26.01
aF26.02
aF26.02
aF26.03
aF26.05
aF26.04
aF26.01
aF26.03
aF26.06
aF26.05
aF26.04
aF26.05
aF26.01
aF26.06
aF26.03
aF26.08
aF26.04
aF26.04
aF26.05
aF26.04
aF26.05
aF26.04
aF26.06
aF26.05
aF26.02
aF26.05
aF26.03
aF26.06
aF26.06
aF26.04
aF26.03
aF26.04
aF26.01
aF26.03
aF26.05
aF26.02
aF26.02
aF26.05
aF26.07
aF26.04
aF26.04
aF26.06
aF26.04
aF26.04
aF26.02
aF26.04
aF26.04
aF26.02
aF26.0
aF26.06
aF26.04
aF26.01
aF26.05
aF25.99
aF26.04
aF26.0
aF26.0
aF26.02
aF26.02
aF26.02
aF26.0
aF26.04
aF25.99
aF26.02
aF26.01
aF26.04
aF26.01
aF26.01
aF26.01
aF26.01
aF26.01
aF26.0
aF26.02
aF26.03
aF26.01
aF26.09
aF26.01
aF26.02
aF26.0
aF25.97
aF26.01
aF26.02
aF26.02
aF26.02
aF26.04
aF26.04
aF26.02
aF26.01
aF26.03
aF26.03
aF26.03
aF26.02
aF26.04
aF26.04
aF26.04
aF26.01
aF26.05
aF26.04
aF26.04
aF26.06
aF26.07
aF26.05
aF26.05
aF26.05
aF26.06
aF26.07
aF26.05
aF26.07
aF26.07
aF26.06
aF26.06
aF26.05
aF26.05
aF26.05
aF26.08
aF26.06
aF26.05
aF26.06
aF26.09
aF26.06
aF26.03
aF26.05
aF26.08
aF26.06
aF26.06
aF26.07
aF26.06
aF26.07
aF26.06
aF26.06
aF26.06
aF26.07
aF26.08
aF26.07
aF26.06
aF26.05
aF26.04
aF26.05
aF26.06
aF26.04
aF26.04
aF26.05
aF26.05
aF26.03
aF26.07
aF26.01
aF26.07
aF26.07
aF26.04
aF26.04
aF26.06
aF26.06
aF26.0
aF26.04
aF26.06
aF26.08
aF26.02
aF26.03
aF26.01
aF26.04
aF26.02
aF26.04
aF26.04
aF26.04
aF26.07
aF26.0
aF26.02
aF26.04
aF26.04
aF26.06
aF26.06
aF26.05
aF26.06
aF26.01
aF26.06
aF26.05
aF26.04
aF26.07
aF26.05
aF26.04
aF26.06
aF26.06
aF26.06
aF26.05
aF26.02
aF26.04
aF26.02
aF26.03
aF26.04
aF26.06
aF26.06
aF26.08
aF26.04
aF26.05
aF26.04
aF26.01
aF26.05
aF26.05
aF26.04
aF26.01
aF26.07
aF26.04
aF26.05
aF26.05
aF26.04
aF26.05
aF26.05
aF26.02
aF26.04
aF26.05
aF26.07
aF26.06
aF26.06
aF26.05
aF26.04
aF26.04
aF26.04
aF26.06
aF26.05
aF26.05
aF26.04
aF26.06
aF26.05
aF26.01
aF26.05
aF26.07
aF26.05
aF26.04
aF26.05
aF26.06
aF26.04
aF26.05
aF26.06
aF26.07
aF26.07
aF26.07
aF26.07
aF26.07
aF26.09
aF26.08
aF26.1
aF26.08
aF26.07
aF26.09
aF26.07
aF26.08
aF26.09
aF26.09
aF26.1
aF26.11
aF26.07
aF26.08
aF26.1
aF26.11
aF26.1
aF26.08
aF26.09
aF26.1
aF26.12
aF26.13
aF26.1
aF26.1
aF26.13
aF26.14
aF26.14
aF26.15
aF26.13
aF26.13
aF26.11
aF26.14
aF26.11
aF26.11
aF26.13
aF26.16
aF26.12
aF26.14
aF26.12
aF26.11
aF26.13
aF26.13
aF26.12
aF26.13
aF26.15
aF26.15
aF26.15
aF26.15
aF26.15
aF26.15
aF26.17
aF26.16
aF26.16
aF26.15
aF26.16
aF26.18
aF26.17
aF26.16
aF26.16
aF26.18
aF26.17
aF26.18
aF26.19
aF26.17
aF26.16
aF26.15
aF26.19
aF26.18
aF26.19
aF26.19
aF26.2
aF26.18
aF26.2
aF26.19
aF26.2
aF26.2
aF26.21
aF26.2
aF26.21
aF26.22
aF26.21
aF26.22
aF26.22
aF26.21
aF26.24
aF26.21
aF26.23
aF26.23
aF26.23
aF26.24
aF26.24
aF26.24
aF26.25
aF26.25
aF26.27
aF26.27
aF26.26
aF26.25
aF26.25
aF26.27
aF26.27
aF26.25
aF26.27
aF26.27
aF26.27
aF26.26
aF26.26
aF26.27
aF26.26
aF26.26
aF26.29
aF26.27
aF26.27
aF26.26
aF26.27
aF26.29
aF26.28
aF26.26
aF26.27
aF26.28
aF26.28
aF26.29
aF26.29
aF26.28
aF26.28
aF26.3
aF26.3
aF26.29
aF26.31
aF26.3
aF26.31
aF26.3
aF26.31
aF26.31
aF26.34
aF26.33
aF26.33
aF26.33
aF26.32
aF26.33
aF26.34
aF26.34
aF26.35
aF26.35
aF26.34
aF26.34
aF26.32
aF26.35
aF26.37
aF26.36
aF26.38
aF26.37
aF26.37
aF26.36
aF26.34
aF26.39
aF26.37
aF26.36
aF26.38
aF26.41
aF26.38
aF26.4
aF26.39
aF26.37
aF26.38
aF26.38
aF26.4
aF26.38
aF26.4
aF26.38
aF26.4
aF26.44
aF26.43
aF26.41
aF26.42
aF26.41
aF26.41
aF26.41
aF26.41
aF26.4
aF26.42
aF26.41
aF26.42
aF26.4
aF26.42
aF26.43
aF26.45
aF26.42
aF26.43
aF26.41
aF26.44
aF26.44
aF26.43
aF26.46
aF26.45
aF26.44
aF26.45
aF26.47
aF26.45
aF26.47
aF26.47
aF26.47
aF26.46
aF26.45
aF26.47
aF26.46
aF26.47
aF26.47
aF26.5
aF26.47
aF26.48
aF26.47
aF26.47
aF26.49
aF26.5
aF26.54
aF26.51
aF26.49
aF26.48
aF26.48
aF26.49
aF26.5
aF26.5
aF26.5
aF26.48
aF26.48
aF26.5
aF26.48
aF26.48
aF26.48
aF26.54
aF26.49
aF26.49
aF26.49
aF26.5
aF26.5
aF26.5
aF26.49
aF26.48
aF26.51
aF26.51
aF26.51
aF26.48
aF26.52
aF26.5
aF26.49
aF26.51
aF26.54
aF26.53
aF26.54
aF26.54
aF26.51
aF26.55
aF26.5
aF26.52
aF26.54
aF26.55
aF26.53
aF26.55
aF26.53
aF26.54
aF26.53
aF26.55
aF26.55
aF26.56
aF26.55
aF26.56
aF26.54
aF26.57
aF26.56
aF26.56
aF26.56
aF26.56
aF26.57
aF26.58
aF26.58
aF26.56
aF26.56
aF26.57
aF26.57
aF26.59
aF26.56
aF26.56
aF26.58
aF26.59
aF26.56
aF26.58
aF26.59
aF26.58
aF26.59
aF26.59
aF26.58
aF26.59
aF26.59
aF26.59
aF26.58
aF26.59
aF26.58
aF26.59
aF26.59
aF26.58
aF26.58
aF26.59
aF26.6
aF26.59
aF26.6
aF26.6
aF26.6
aF26.6
aF26.59
aF26.6
aF26.6
aF26.59
aF26.6
aF26.62
aF26.61
aF26.63
aF26.61
aF26.61
aF26.61
aF26.61
aF26.6
aF26.61
aF26.6
aF26.61
aF26.61
aF26.61
aF26.61
aF26.62
aF26.62
aF26.61
aF26.61
aF26.61
aF26.64
aF26.61
aF26.61
aF26.62
aF26.61
aF26.61
aF26.61
aF26.61
aF26.61
aF26.61
aF26.61
aF26.62
aF26.62
aF26.61
aF26.61
aF26.62
aF26.61
aF26.6
aF26.61
aF26.62
aF26.61
aF26.61
aF26.61
aF26.61
aF26.62
aF26.62
aF26.6
aF26.61
aF26.62
aF26.61
aF26.64
aF26.62
aF26.61
aF26.62
aF26.62
aF26.61
aF26.61
aF26.61
aF26.62
aF26.61
aF26.62
aF26.63
aF26.62
aF26.63
aF26.64
aF26.63
aF26.62
aF26.62
aF26.64
aF26.64
aF26.64
aF26.62
aF26.62
aF26.62
aF26.64
aF26.65
aF26.63
aF26.63
aF26.63
aF26.62
aF26.63
aF26.62
aF26.63
aF26.69
aF26.62
aF26.63
aF26.64
aF26.63
aF26.63
aF26.67
aF26.64
aF26.64
aF26.63
aF26.67
aF26.66
aF26.68
aF26.66
aF26.65
aF26.69
aF26.66
aF26.62
aF26.66
aF26.7
aF26.69
aF26.67
aF26.66
aF26.63
aF26.65
aF26.64
aF26.64
aF26.68
aF26.69
aF26.63
aF26.64
aF26.63
aF26.63
aF26.64
aF26.67
aF26.66
aF26.64
aF26.64
aF26.66
aF26.66
aF26.64
aF26.65
aF26.65
aF26.64
aF26.67
aF26.65
aF26.71
aF26.68
aF26.67
aF26.69
aF26.67
aF26.74
aF26.76
aF26.67
aF26.73
aF26.77
aF26.7
aF26.69
aF26.75
aF26.79
aF26.77
aF26.73
aF26.77
aF26.78
aF26.74
aF26.81
aF26.79
aF26.79
aF26.76
aF26.81
aF26.75
aF26.78
aF26.8
aF26.81
aF26.81
aF26.78
aF26.74
aF26.75
aF26.83
aF26.81
aF26.8
aF26.83
aF26.82
aF26.81
aF26.71
aF26.77
aF26.76
aF26.8
aF26.76
aF26.76
aF26.79
aF26.8
aF26.84
aF26.83
aF26.82
aF26.8
aF26.76
aF26.83
aF26.79
aF26.76
aF26.76
aF26.8
aF26.73
aF26.8
aF26.8
aF26.78
aF26.79
aF26.76
aF26.82
aF26.79
aF26.79
aF26.85
aF26.83
aF26.79
aF26.85
aF26.8
aF26.84
aF26.8
aF26.73
aF26.83
aF26.81
aF26.84
aF26.86
aF26.78
aF26.79
aF26.81
aF26.84
aF26.85
aF26.81
aF26.82
aF26.83
aF26.84
aF26.84
aF26.82
aF26.82
aF26.84
aF26.83
aF26.84
aF26.87
aF26.88
aF26.86
aF26.84
aF26.84
aF26.85
aF26.85
aF26.85
aF26.84
aF26.82
aF26.82
aF26.8
aF26.82
aF26.85
aF26.8
aF26.85
aF26.83
aF26.8
aF26.79
aF26.75
aF26.81
aF26.81
aF26.75
aF26.77
aF26.83
aF26.81
aF26.84
aF26.79
aF26.76
aF26.81
aF26.74
aF26.77
aF26.75
aF26.73
aF26.77
aF26.8
aF26.7
aF26.72
aF26.67
aF26.68
aF26.75
aF26.66
aF26.69
aF26.72
aF26.71
aF26.71
aF26.71
aF26.72
aF26.72
aF26.66
aF26.69
aF26.7
aF26.66
aF26.7
aF26.7
aF26.66
aF26.72
aF26.66
aF26.71
aF26.68
aF26.71
aF26.68
aF26.65
aF26.64
aF26.66
aF26.69
aF26.67
aF26.67
aF26.67
aF26.68
aF26.66
aF26.64
aF26.65
aF26.67
aF26.64
aF26.69
aF26.67
aF26.68
aF26.7
aF26.71
aF26.64
aF26.64
aF26.64
aF26.66
aF26.65
aF26.64
aF26.62
aF26.62
aF26.65
aF26.63
aF26.63
aF26.64
aF26.65
aF26.64
aF26.62
aF26.64
aF26.62
aF26.62
aF26.64
aF26.61
aF26.64
aF26.63
aF26.64
aF26.63
aF26.62
aF26.62
aF26.64
aF26.64
aF26.62
aF26.61
aF26.62
aF26.62
aF26.62
aF26.63
aF26.61
aF26.65
aF26.62
aF26.62
aF26.63
aF26.62
aF26.62
aF26.62
aF26.61
aF26.62
aF26.63
aF26.62
aF26.61
aF26.61
aF26.61
aF26.62
aF26.61
aF26.63
aF26.61
aF26.61
aF26.61
aF26.61
aF26.61
aF26.61
aF26.63
aF26.62
aF26.61
aF26.61
aF26.61
aF26.6
aF26.61
aF26.61
aF26.6
aF26.61
aF26.61
aF26.61
aF26.61
aF26.61
aF26.61
aF26.61
aF26.6
aF26.6
aF26.6
aF26.59
aF26.6
aF26.61
aF26.6
aF26.62
aF26.6
aF26.59
aF26.6
aF26.6
aF26.61
aF26.61
aF26.6
aF26.6
aF26.59
aF26.59
aF26.6
aF26.59
aF26.6
aF26.58
aF26.59
aF26.58
aF26.57
aF26.59
aF26.6
aF26.59
aF26.59
aF26.59
aF26.59
aF26.59
aF26.59
aF26.59
aF26.58
aF26.57
aF26.58
aF26.57
aF26.6
aF26.59
aF26.56
aF26.54
aF26.57
aF26.57
aF26.55
aF26.59
aF26.58
aF26.55
aF26.57
aF26.57
aF26.55
aF26.56
aF26.57
aF26.56
aF26.58
aF26.55
aF26.57
aF26.54
aF26.57
aF26.54
aF26.55
aF26.56
aF26.57
aF26.57
aa(lp2
F10.24
aF10.24
aF10.2
aF10.24
aF10.32
aF10.24
aF10.16
aF10.16
aF10.2
aF10.32
aF10.24
aF10.28
aF10.24
aF10.16
aF10.32
aF10.2
aF10.32
aF10.24
aF10.2
aF10.28
aF10.16
aF10.24
aF10.32
aF10.08
aF10.24
aF10.24
aF10.24
aF10.32
aF10.12
aF10.28
aF10.2
aF10.28
aF10.36
aF10.28
aF10.28
aF10.24
aF10.2
aF10.28
aF10.12
aF10.28
aF10.24
aF10.24
aF10.28
aF10.28
aF10.32
aF10.32
aF10.2
aF10.28
aF10.24
aF10.24
aF10.2
aF10.24
aF10.28
aF10.32
aF10.24
aF10.28
aF10.28
aF10.2
aF10.32
aF10.2
aF10.32
aF10.28
aF10.83
aF10.47
aF10.32
aF10.24
aF10.24
aF10.32
aF10.36
aF10.28
aF10.24
aF10.12
aF10.16
aF10.2
aF10.24
aF10.32
aF10.16
aF10.28
aF10.24
aF10.28
aF10.28
aF10.28
aF10.24
aF10.28
aF10.28
aF10.32
aF10.24
aF10.32
aF10.28
aF10.24
aF10.32
aF10.24
aF10.24
aF10.24
aF10.28
aF10.28
aF10.28
aF10.28
aF10.2
aF10.24
aF10.2
aF10.12
aF10.04
aF10.36
aF10.12
aF10.24
aF10.24
aF10.28
aF10.2
aF10.28
aF10.2
aF10.28
aF10.24
aF10.24
aF10.24
aF10.16
aF10.2
aF10.04
aF10.24
aF10.28
aF10.24
aF10.28
aF10.28
aF10.28
aF10.2
aF10.28
aF10.2
aF10.28
aF10.32
aF10.16
aF10.32
aF10.24
aF10.28
aF10.24
aF10.28
aF10.24
aF10.24
aF10.24
aF10.28
aF10.28
aF10.28
aF10.24
aF10.28
aF10.24
aF10.28
aF10.2
aF10.28
aF10.24
aF10.28
aF10.28
aF10.24
aF10.28
aF10.28
aF10.28
aF10.24
aF10.24
aF10.28
aF10.28
aF10.28
aF10.24
aF10.28
aF10.24
aF10.28
aF10.32
aF10.2
aF10.24
aF10.28
aF10.24
aF10.28
aF10.2
aF10.28
aF10.24
aF10.32
aF10.24
aF10.2
aF10.28
aF10.28
aF10.28
aF10.28
aF10.2
aF10.24
aF10.2
aF10.24
aF10.28
aF10.24
aF10.28
aF10.28
aF10.24
aF10.28
aF10.24
aF10.28
aF10.28
aF10.16
aF10.24
aF10.28
aF10.28
aF10.32
aF10.28
aF10.28
aF10.24
aF10.28
aF10.28
aF10.2
aF10.28
aF10.2
aF10.24
aF10.28
aF10.2
aF10.24
aF10.2
aF10.32
aF10.32
aF10.28
aF10.28
aF10.2
aF10.2
aF10.36
aF10.24
aF10.32
aF10.28
aF10.28
aF10.28
aF10.28
aF10.28
aF10.28
aF10.24
aF10.28
aF10.24
aF10.24
aF10.24
aF10.28
aF10.28
aF10.36
aF10.12
aF10.4
aF10.36
aF10.24
aF10.2
aF10.32
aF10.24
aF10.16
aF10.24
aF10.16
aF10.32
aF10.12
aF10.2
aF10.24
aF10.16
aF10.2
aF10.2
aF10.24
aF10.24
aF10.24
aF10.2
aF10.2
aF10.2
aF10.2
aF10.24
aF10.16
aF10.24
aF10.16
aF10.12
aF10.24
aF10.24
aF10.24
aF10.2
aF10.2
aF10.2
aF10.2
aF10.2
aF10.24
aF10.2
aF10.2
aF10.2
aF10.2
aF10.36
aF10.12
aF10.12
aF10.28
aF10.16
aF10.24
aF10.16
aF10.24
aF10.12
aF10.2
aF10.16
aF10.12
aF10.04
aF10.2
aF10.32
aF10.24
aF10.28
aF10.28
aF10.32
aF10.2
aF10.24
aF10.16
aF10.2
aF10.08
aF10.16
aF10.24
aF10.2
aF10.2
aF10.12
aF10.28
aF10.16
aF10.2
aF10.24
aF10.16
aF10.24
aF10.28
aF10.16
aF10.28
aF10.32
aF10.28
aF10.24
aF10.24
aF10.28
aF10.24
aF10.24
aF10.2
aF10.28
aF10.32
aF10.32
aF10.32
aF10.28
aF10.36
aF10.24
aF10.32
aF10.28
aF10.28
aF10.24
aF10.2
aF10.28
aF10.24
aF10.32
aF10.24
aF10.24
aF10.28
aF10.24
aF10.32
aF10.24
aF10.32
aF10.24
aF10.28
aF10.36
aF10.28
aF10.16
aF10.2
aF10.36
aF10.2
aF10.2
aF10.28
aF10.28
aF10.24
aF10.24
aF10.28
aF10.2
aF10.2
aF10.16
aF10.32
aF10.24
aF10.2
aF10.2
aF10.2
aF10.32
aF10.28
aF10.2
aF10.24
aF10.2
aF10.16
aF10.2
aF10.24
aF10.28
aF10.24
aF10.24
aF10.32
aF10.28
aF10.32
aF10.28
aF10.28
aF10.28
aF10.28
aF10.32
aF10.28
aF10.32
aF10.32
aF10.32
aF10.24
aF10.32
aF10.24
aF10.32
aF10.36
aF10.28
aF10.32
aF10.32
aF10.36
aF10.24
aF10.2
aF10.28
aF10.32
aF10.28
aF10.24
aF10.32
aF10.28
aF10.24
aF10.28
aF10.32
aF10.32
aF10.4
aF10.2
aF10.32
aF10.24
aF10.32
aF10.32
aF10.2
aF10.36
aF10.28
aF10.28
aF10.32
aF10.32
aF10.24
aF10.28
aF10.28
aF10.2
aF10.36
aF10.28
aF10.28
aF10.28
aF10.32
aF10.32
aF10.28
aF10.32
aF10.28
aF10.28
aF10.36
aF10.28
aF10.36
aF10.28
aF10.36
aF10.36
aF10.28
aF10.28
aF10.24
aF10.24
aF10.28
aF10.28
aF10.24
aF10.28
aF10.28
aF10.28
aF10.32
aF10.32
aF10.24
aF10.32
aF10.32
aF10.4
aF10.28
aF10.32
aF10.32
aF10.32
aF10.28
aF10.24
aF10.32
aF10.28
aF10.28
aF10.32
aF10.2
aF10.28
aF10.24
aF10.28
aF10.32
aF10.24
aF10.36
aF10.28
aF10.32
aF10.24
aF10.24
aF10.32
aF10.24
aF10.28
aF10.28
aF10.24
aF10.24
aF10.32
aF10.32
aF10.32
aF10.24
aF10.24
aF10.24
aF10.32
aF10.28
aF10.32
aF10.36
aF10.24
aF10.28
aF10.28
aF10.24
aF10.32
aF10.24
aF10.28
aF10.32
aF10.2
aF10.24
aF10.28
aF10.32
aF10.32
aF10.28
aF10.32
aF10.36
aF10.28
aF10.32
aF10.28
aF10.28
aF10.32
aF10.28
aF10.32
aF10.24
aF10.32
aF10.28
aF10.28
aF10.32
aF10.32
aF10.36
aF10.36
aF10.28
aF10.32
aF10.28
aF10.32
aF10.28
aF10.28
aF10.32
aF10.28
aF10.32
aF10.24
aF10.28
aF10.28
aF10.28
aF10.32
aF10.28
aF10.32
aF10.28
aF10.28
aF10.4
aF10.24
aF10.32
aF10.28
aF10.36
aF10.36
aF10.36
aF10.28
aF10.28
aF10.36
aF10.32
aF10.28
aF10.32
aF10.32
aF10.36
aF10.36
aF10.36
aF10.32
aF10.28
aF10.28
aF10.24
aF10.32
aF10.32
aF10.32
aF10.2
aF10.12
aF10.24
aF10.2
aF10.36
aF10.28
aF10.32
aF10.4
aF10.4
aF10.32
aF10.32
aF10.28
aF10.24
aF10.32
aF10.28
aF10.28
aF10.63
aF10.0
aF10.28
aF10.12
aF10.0
aF10.16
aF10.24
aF10.16
aF10.24
aF10.16
aF10.24
aF10.2
aF10.24
aF10.2
aF10.16
aF10.32
aF10.24
aF10.28
aF10.28
aF10.24
aF10.2
aF10.16
aF10.43
aF10.55
aF10.08
aF10.08
aF9.73
aF10.08
aF9.92
aF10.12
aF8.98
aF10.63
aF9.69
aF10.75
aF9.57
aF11.34
aF9.41
aF10.47
aF10.28
aF10.79
aF10.16
aF10.32
aF9.49
aF10.55
aF10.32
aF10.4
aF10.47
aF11.02
aF9.14
aF10.0
aF9.69
aF9.73
aF9.92
aF9.38
aF11.06
aF9.61
aF10.43
aF10.94
aF9.3
aF9.85
aF9.69
aF10.4
aF10.04
aF10.79
aF8.87
aF10.87
aF8.43
aF11.69
aF10.51
aF9.41
aF10.71
aF9.41
aF11.34
aF9.65
aF10.16
aF6.63
aF10.12
aF9.45
aF9.85
aF11.34
aF9.45
aF9.1
aF10.79
aF10.0
aF10.51
aF10.87
aF9.45
aF8.2
aF8.47
aF8.43
aF12.32
aF10.67
aF10.12
aF10.43
aF9.85
aF10.2
aF10.71
aF9.02
aF10.04
aF8.16
aF9.1
aF9.92
aF9.34
aF11.06
aF9.92
aF10.12
aF10.16
aF9.92
aF9.96
aF8.2
aF10.04
aF9.73
aF9.1
aF10.0
aF10.47
aF9.96
aF10.75
aF10.47
aF10.08
aF10.0
aF8.94
aF8.94
aF9.26
aF9.85
aF10.75
aF10.59
aF10.12
aF11.45
aF9.61
aF10.79
aF10.2
aF10.4
aF10.51
aF10.32
aF10.28
aF10.24
aF10.24
aF10.28
aF10.4
aF10.28
aF10.32
aF10.24
aF10.28
aF10.36
aF10.32
aF10.32
aF10.28
aF10.28
aF10.24
aF10.36
aF10.24
aF10.36
aF10.28
aF10.24
aF10.32
aF10.36
aF10.28
aF10.28
aF10.28
aF10.36
aF10.32
aF10.24
aF10.28
aF10.32
aF10.32
aF10.32
aF10.28
aF10.32
aF10.36
aF10.28
aF10.28
aF10.28
aF10.28
aF10.32
aF10.36
aF10.4
aF10.28
aF10.36
aF10.28
aF10.24
aF10.32
aF10.32
aF10.32
aF10.28
aF10.28
aF10.36
aF10.32
aF10.32
aF10.32
aF10.28
aF10.36
aF10.24
aF10.28
aF10.28
aF10.32
aF10.28
aF10.32
aF10.24
aF10.28
aF10.28
aF10.28
aF10.28
aF10.36
aF10.28
aF10.32
aF10.28
aF10.32
aF10.36
aF10.32
aF10.28
aF10.28
aF10.28
aF10.32
aF10.32
aF10.36
aF10.24
aF10.36
aF10.28
aF10.24
aF10.36
aF10.28
aF10.28
aF10.28
aF10.28
aF10.32
aF10.28
aF10.32
aF10.32
aF10.28
aF10.32
aF10.28
aF10.28
aF10.32
aF10.28
aF10.28
aF10.32
aF10.24
aF10.32
aF10.32
aF10.28
aF10.36
aF10.32
aF10.32
aF10.28
aF10.32
aF10.28
aF10.32
aF10.32
aF10.32
aF10.32
aF10.28
aF10.24
aF10.32
aF10.24
aF10.32
aF10.28
aF10.28
aF10.36
aF10.24
aF10.32
aF10.24
aF10.32
aF10.28
aF10.28
aF10.32
aF10.28
aF10.32
aF10.28
aF10.24
aF10.28
aF10.32
aF10.24
aF10.32
aF10.24
aF10.32
aF10.32
aF10.28
aF10.32
aF10.32
aF10.28
aF10.32
aF10.24
aF10.28
aF10.36
aF10.28
aF10.36
aF10.32
aF10.28
aF10.32
aF10.28
aF10.28
aF10.32
aF10.28
aF10.28
aF10.24
aF10.28
aF10.24
aF10.32
aF10.32
aF10.28
aF10.32
aF10.32
aF10.28
aF10.28
aF10.32
aF10.28
aF10.28
aF10.28
aF10.32
aF10.32
aF10.32
aF10.32
aF10.32
aF10.28
aF10.28
aF10.28
aF10.32
aF10.4
aF10.32
aF10.2
aF10.32
aF10.28
aF10.28
aF10.28
aF10.24
aF10.47
aF10.4
aF10.36
aF10.32
aF10.28
aF10.28
aF10.24
aF10.32
aF10.28
aF10.36
aF10.28
aF10.32
aF10.28
aF10.28
aF10.32
aF10.28
aF10.24
aF10.24
aF10.24
aF10.36
aF10.24
aF10.36
aF10.24
aF10.32
aF10.36
aF10.28
aF10.4
aF10.28
aF10.28
aF10.28
aF10.32
aF10.32
aF10.28
aF10.32
aF10.24
aF10.32
aF10.36
aF10.24
aF10.36
aF10.28
aF10.28
aF10.32
aF10.28
aF10.32
aF10.28
aF10.28
aF10.28
aF10.28
aF10.36
aF10.28
aF10.28
aF10.36
aF10.28
aF10.32
aF10.28
aF10.28
aF10.36
aF10.24
aF10.28
aF10.28
aF10.28
aF10.32
aF10.28
aF10.24
aF10.28
aF10.28
aF10.4
aF10.36
aF10.28
aF10.28
aF10.24
aF10.24
aF10.28
aF10.28
aF10.32
aF10.32
aF10.43
aF10.28
aF10.24
aF10.32
aF10.28
aF10.36
aF10.32
aF10.28
aF10.24
aF10.32
aF10.32
aF10.32
aF10.28
aF10.32
aF10.28
aF10.24
aa(lp3
F-0.12
aF-0.08
aF-0.12
aF-0.12
aF-0.16
aF-0.12
aF-0.2
aF-0.16
aF-0.16
aF-0.12
aF-0.16
aF-0.08
aF-0.16
aF-0.08
aF-0.12
aF-0.08
aF-0.08
aF-0.08
aF-0.12
aF-0.08
aF-0.12
aF-0.12
aF-0.12
aF-0.2
aF-0.08
aF-0.2
aF-0.12
aF-0.16
aF-0.12
aF-0.12
aF-0.04
aF-0.12
aF-0.16
aF-0.08
aF-0.08
aF-0.08
aF-0.12
aF-0.12
aF-0.2
aF-0.24
aF-0.16
aF-0.16
aF-0.04
aF-0.08
aF-0.12
aF-0.16
aF-0.08
aF-0.08
aF-0.08
aF-0.12
aF-0.16
aF-0.16
aF-0.08
aF-0.12
aF-0.04
aF-0.16
aF-0.16
aF-0.08
aF-0.08
aF-0.08
aF-0.08
aF-0.16
aF-0.12
aF-0.08
aF-0.08
aF-0.12
aF-0.12
aF-0.12
aF-0.16
aF-0.12
aF-0.12
aF-0.12
aF-0.04
aF-0.08
aF-0.04
aF-0.08
aF-0.16
aF-0.08
aF-0.12
aF-0.12
aF-0.12
aF-0.08
aF-0.08
aF-0.12
aF-0.08
aF-0.12
aF-0.08
aF-0.08
aF-0.12
aF-0.12
aF-0.2
aF-0.08
aF-0.08
aF-0.16
aF-0.08
aF-0.04
aF-0.16
aF-0.16
aF-0.12
aF-0.04
aF-0.08
aF-1.57
aF1.18
aF-1.45
aF-0.31
aF-0.12
aF-0.2
aF-0.12
aF-0.08
aF-0.16
aF-0.12
aF-0.2
aF-0.12
aF-0.12
aF-0.16
aF-0.12
aF-0.2
aF-0.35
aF-0.16
aF-0.2
aF-0.16
aF-0.2
aF-0.16
aF-0.12
aF-0.2
aF-0.12
aF-0.12
aF-0.16
aF-0.2
aF-0.16
aF-0.16
aF-0.16
aF-0.12
aF-0.2
aF-0.24
aF-0.16
aF-0.16
aF-0.12
aF-0.24
aF-0.12
aF-0.2
aF-0.16
aF-0.12
aF-0.16
aF-0.12
aF-0.12
aF-0.2
aF-0.16
aF-0.12
aF-0.16
aF-0.12
aF-0.16
aF-0.24
aF-0.08
aF-0.16
aF-0.16
aF-0.16
aF-0.2
aF-0.12
aF-0.08
aF-0.16
aF-0.16
aF-0.16
aF-0.12
aF-0.12
aF-0.12
aF-0.2
aF-0.16
aF-0.08
aF-0.12
aF-0.12
aF-0.12
aF-0.08
aF-0.16
aF-0.16
aF-0.2
aF-0.16
aF-0.2
aF-0.2
aF-0.16
aF-0.16
aF-0.16
aF-0.16
aF-0.12
aF-0.16
aF-0.2
aF-0.12
aF-0.12
aF-0.04
aF-0.12
aF-0.12
aF-0.12
aF-0.16
aF-0.12
aF-0.16
aF-0.12
aF-0.24
aF-0.16
aF-0.2
aF-0.16
aF-0.16
aF-0.16
aF-0.2
aF-0.08
aF-0.12
aF-0.16
aF-0.16
aF-0.12
aF-0.12
aF-0.16
aF-0.16
aF-0.12
aF-0.2
aF-0.12
aF-0.16
aF-0.08
aF-0.24
aF-0.2
aF-0.24
aF-0.2
aF-0.12
aF-0.08
aF-0.2
aF-0.16
aF-0.2
aF-0.16
aF-0.12
aF-0.16
aF-0.16
aF-0.2
aF-0.16
aF-0.12
aF-0.16
aF-0.94
aF0.0
aF0.2
aF-0.16
aF-0.12
aF-0.12
aF-0.12
aF-0.12
aF-0.08
aF-0.04
aF-0.16
aF-0.2
aF-0.08
aF-0.16
aF-0.12
aF-0.12
aF-0.12
aF-0.16
aF-0.16
aF-0.04
aF-0.08
aF-0.08
aF-0.12
aF-0.12
aF-0.12
aF-0.08
aF-0.16
aF-0.24
aF-0.12
aF-0.16
aF-0.08
aF-0.12
aF-0.08
aF-0.08
aF-0.12
aF-0.12
aF-0.12
aF-0.12
aF-0.08
aF-0.12
aF-0.12
aF-0.16
aF-0.08
aF-0.2
aF-0.12
aF-0.12
aF-0.08
aF-0.08
aF-0.24
aF-0.08
aF-0.16
aF-0.08
aF-0.2
aF-0.31
aF-0.27
aF-0.16
aF-0.12
aF-0.04
aF-0.12
aF-0.12
aF-0.08
aF-0.12
aF-0.2
aF-0.16
aF-0.2
aF-0.39
aF-0.2
aF-0.12
aF-0.08
aF-0.08
aF-0.27
aF-0.16
aF-0.2
aF-0.2
aF-0.12
aF-0.27
aF-0.16
aF-0.16
aF-0.04
aF-0.16
aF-0.08
aF-0.16
aF-0.12
aF-0.12
aF-0.08
aF-0.04
aF-0.12
aF-0.16
aF-0.16
aF-0.08
aF-0.04
aF-0.16
aF-0.08
aF-0.12
aF-0.12
aF-0.12
aF-0.12
aF-0.2
aF-0.12
aF-0.16
aF-0.12
aF-0.16
aF-0.08
aF-0.12
aF-0.08
aF-0.12
aF-0.2
aF-0.08
aF-0.16
aF-0.24
aF-0.24
aF-0.08
aF-0.2
aF-0.12
aF-0.27
aF-0.12
aF-0.16
aF-0.16
aF-0.16
aF-0.16
aF-0.24
aF-0.2
aF-0.2
aF-0.16
aF-0.24
aF-0.04
aF0.0
aF-0.27
aF-0.04
aF-0.16
aF-0.04
aF-0.24
aF0.12
aF-0.2
aF-0.16
aF-0.12
aF-0.27
aF-0.2
aF-0.27
aF-0.16
aF-0.24
aF-0.12
aF0.0
aF-0.24
aF-0.12
aF-0.08
aF-0.31
aF-0.08
aF-0.2
aF-0.27
aF-0.04
aF-0.04
aF-0.08
aF-0.2
aF-0.16
aF0.0
aF-0.04
aF-0.04
aF-0.08
aF-0.24
aF-0.04
aF-0.08
aF-0.08
aF-0.12
aF0.08
aF-0.55
aF-0.08
aF-0.08
aF-0.12
aF-0.08
aF-0.08
aF-0.08
aF-0.04
aF-0.08
aF-0.04
aF-0.04
aF0.0
aF-0.08
aF-0.12
aF-0.04
aF-0.08
aF0.0
aF-0.04
aF-0.08
aF-0.04
aF-0.04
aF-0.08
aF-0.08
aF-0.12
aF-0.12
aF-0.04
aF-0.08
aF-0.08
aF-0.16
aF-0.08
aF0.0
aF-0.16
aF-0.08
aF-0.08
aF-0.04
aF-0.12
aF-0.08
aF-0.08
aF-0.04
aF-0.04
aF-0.08
aF-0.12
aF-0.08
aF-0.08
aF-0.08
aF-0.08
aF-0.04
aF-0.08
aF-0.12
aF-0.04
aF-0.04
aF-0.08
aF-0.12
aF-0.12
aF-0.08
aF-0.08
aF-0.08
aF-0.04
aF-0.08
aF-0.08
aF-0.04
aF-0.12
aF-0.08
aF-0.08
aF-0.08
aF-0.08
aF-0.12
aF-0.08
aF-0.08
aF-0.08
aF-0.08
aF-0.08
aF-0.04
aF-0.08
aF-0.16
aF-0.12
aF-0.08
aF-0.16
aF-0.12
aF-0.04
aF-0.08
aF-0.08
aF-0.08
aF-0.12
aF-0.08
aF-0.08
aF-0.12
aF-0.08
aF0.0
aF-0.12
aF-0.16
aF-0.08
aF-0.08
aF-0.04
aF-0.08
aF-0.08
aF-0.08
aF-0.04
aF-0.08
aF-0.08
aF-0.04
aF-0.04
aF-0.08
aF-0.08
aF-0.12
aF-0.16
aF-0.16
aF-0.08
aF-0.04
aF-0.04
aF-0.08
aF-0.08
aF-0.08
aF-0.08
aF-0.04
aF-0.08
aF-0.04
aF-0.08
aF-0.08
aF-0.04
aF-0.08
aF-0.12
aF-0.12
aF-0.12
aF-0.08
aF-0.08
aF-0.08
aF-0.12
aF-0.04
aF-0.08
aF-0.08
aF-0.12
aF-0.16
aF-0.12
aF-0.08
aF-0.04
aF-0.08
aF-0.12
aF-0.08
aF-0.08
aF-0.08
aF-0.16
aF-0.08
aF-0.08
aF-0.12
aF-0.08
aF-0.08
aF-0.04
aF-0.08
aF-0.08
aF-0.12
aF-0.12
aF-0.08
aF-0.04
aF-0.08
aF-0.08
aF-0.04
aF-0.08
aF-0.12
aF-0.12
aF-0.12
aF-0.12
aF-0.04
aF-0.12
aF-0.08
aF-0.04
aF-0.12
aF-0.08
aF-0.08
aF0.0
aF-0.16
aF-0.2
aF-0.16
aF-0.08
aF-0.08
aF-0.08
aF-0.08
aF0.0
aF-0.08
aF-0.12
aF-0.04
aF-0.08
aF-0.04
aF-0.08
aF0.04
aF-1.14
aF-3.37
aF2.24
aF0.63
aF-2.39
aF-0.71
aF-0.24
aF-0.12
aF-0.16
aF-0.16
aF-0.16
aF-0.16
aF-0.12
aF-0.16
aF-0.2
aF-0.16
aF-0.12
aF-0.16
aF-0.12
aF-0.12
aF-0.59
aF0.71
aF-0.04
aF0.24
aF0.94
aF1.69
aF2.59
aF1.8
aF-0.82
aF-2.16
aF-1.61
aF0.51
aF1.77
aF2.35
aF1.06
aF-0.24
aF-1.22
aF-0.35
aF0.39
aF1.02
aF0.16
aF-1.37
aF-1.61
aF0.31
aF0.24
aF0.82
aF1.73
aF-0.59
aF-1.77
aF-1.49
aF-1.06
aF-0.59
aF0.12
aF3.14
aF2.39
aF2.2
aF-0.98
aF-2.16
aF-2.16
aF-2.9
aF-1.84
aF-0.98
aF0.67
aF1.45
aF4.55
aF2.55
aF2.63
aF0.9
aF-1.53
aF-1.92
aF-1.77
aF-1.29
aF0.55
aF1.92
aF4.63
aF4.59
aF4.12
aF2.43
aF1.57
aF0.0
aF-2.39
aF-2.43
aF-2.28
aF-1.69
aF-0.9
aF1.69
aF3.3
aF6.43
aF4.0
aF3.92
aF2.98
aF0.59
aF-0.39
aF-1.57
aF-1.14
aF0.04
aF0.2
aF1.69
aF3.77
aF3.57
aF4.12
aF1.18
aF-1.1
aF-1.73
aF-0.75
aF-0.08
aF0.75
aF2.55
aF3.41
aF3.49
aF4.79
aF3.02
aF2.2
aF-0.08
aF-1.41
aF-2.98
aF-1.53
aF-0.24
aF0.31
aF3.22
aF3.57
aF2.43
aF1.26
aF0.98
aF0.86
aF-0.67
aF-0.16
aF-0.63
aF0.94
aF0.08
aF0.35
aF0.2
aF0.08
aF0.08
aF-0.08
aF-0.04
aF0.0
aF0.0
aF-0.08
aF-0.04
aF-0.08
aF0.0
aF-0.04
aF0.0
aF-0.16
aF-0.16
aF-0.08
aF-0.12
aF-0.08
aF-0.12
aF-0.12
aF-0.08
aF-0.12
aF-0.04
aF-0.08
aF-0.08
aF-0.08
aF-0.08
aF-0.12
aF-0.04
aF-0.04
aF-0.04
aF-0.04
aF-0.08
aF-0.04
aF-0.04
aF-0.12
aF-0.12
aF-0.08
aF-0.08
aF-0.08
aF-0.08
aF-0.04
aF-0.08
aF-0.08
aF-0.12
aF-0.12
aF-0.12
aF-0.12
aF-0.04
aF-0.04
aF-0.12
aF-0.12
aF-0.08
aF0.0
aF-0.12
aF-0.12
aF-0.08
aF-0.08
aF-0.04
aF-0.16
aF-0.04
aF-0.08
aF-0.12
aF-0.12
aF-0.04
aF-0.16
aF-0.04
aF-0.08
aF-0.08
aF-0.12
aF-0.08
aF-0.12
aF-0.12
aF-0.12
aF-0.12
aF-0.04
aF-0.08
aF-0.12
aF-0.04
aF-0.2
aF-0.12
aF-0.08
aF-0.04
aF-0.12
aF-0.08
aF-0.16
aF-0.04
aF-0.08
aF-0.12
aF-0.04
aF-0.04
aF-0.08
aF-0.08
aF-0.12
aF-0.08
aF-0.12
aF-0.08
aF-0.12
aF-0.12
aF-0.08
aF-0.08
aF-0.12
aF-0.12
aF-0.08
aF-0.04
aF-0.04
aF-0.08
aF-0.08
aF-0.12
aF-0.08
aF-0.08
aF-0.08
aF-0.04
aF-0.12
aF-0.08
aF-0.08
aF-0.12
aF-0.08
aF-0.04
aF-0.04
aF-0.04
aF-0.04
aF-0.08
aF-0.04
aF-0.08
aF-0.08
aF-0.04
aF-0.08
aF-0.04
aF-0.2
aF-0.08
aF-0.08
aF-0.08
aF-0.12
aF-0.04
aF-0.12
aF-0.08
aF-0.04
aF-0.16
aF-0.12
aF-0.08
aF-0.12
aF-0.08
aF-0.04
aF-0.16
aF-0.08
aF-0.08
aF-0.12
aF-0.04
aF-0.12
aF-0.04
aF-0.12
aF-0.08
aF-0.12
aF-0.16
aF-0.08
aF-0.12
aF-0.12
aF-0.08
aF-0.12
aF-0.12
aF-0.12
aF-0.08
aF-0.08
aF-0.04
aF-0.12
aF-0.08
aF-0.12
aF-0.08
aF-0.08
aF-0.12
aF-0.08
aF-0.12
aF0.0
aF-0.12
aF-0.12
aF-0.08
aF-0.12
aF-0.04
aF-0.08
aF-0.08
aF-0.12
aF-0.12
aF-0.08
aF-0.08
aF-0.08
aF-0.08
aF-0.08
aF-0.08
aF-0.08
aF-0.12
aF-0.12
aF-0.04
aF-0.04
aF-0.04
aF-0.04
aF-0.04
aF-0.12
aF-0.04
aF-0.04
aF0.04
aF-0.08
aF-0.12
aF-0.12
aF-0.08
aF-0.04
aF-0.08
aF-0.12
aF-0.08
aF-0.08
aF-0.12
aF-0.16
aF-0.08
aF-0.12
aF-0.08
aF-0.08
aF-0.04
aF-0.08
aF-0.12
aF-0.08
aF-0.12
aF-0.12
aF-0.08
aF-0.08
aF-0.08
aF-0.12
aF-0.04
aF-0.12
aF-0.08
aF-0.08
aF-0.08
aF-0.08
aF-0.12
aF-0.08
aF-0.08
aF-0.12
aF-0.08
aF-0.08
aF-0.12
aF-0.08
aF-0.08
aF-0.12
aF-0.08
aF-0.08
aF-0.08
aF-0.08
aF-0.08
aF-0.08
aF-0.12
aF-0.12
aF-0.08
aF-0.12
aF-0.04
aF-0.08
aF-0.08
aF-0.08
aF-0.12
aF-0.08
aF-0.08
aF-0.04
aF-0.04
aF-0.2
aF-0.08
aF-0.08
aF-0.04
aF-0.04
aF-0.08
aF-0.04
aF-0.08
aF-0.12
aF-0.12
aF-0.12
aF-0.08
aF-0.12
aF-0.08
aF-0.04
aF-0.08
aF-0.12
aF-0.16
aF-0.04
aF-0.12
aF-0.08
aF-0.04
aF-0.08
aF-0.08
aF-0.08
aa(lp4
F0.71
aF0.78
aF0.71
aF0.71
aF0.75
aF0.71
aF0.67
aF0.67
aF0.75
aF0.71
aF0.71
aF0.71
aF0.75
aF0.67
aF0.78
aF0.82
aF0.67
aF0.75
aF0.67
aF0.75
aF0.71
aF0.75
aF0.63
aF0.67
aF0.71
aF0.71
aF0.78
aF0.75
aF0.75
aF0.71
aF0.71
aF0.67
aF0.78
aF0.75
aF0.78
aF0.78
aF0.71
aF0.75
aF0.63
aF0.78
aF0.71
aF0.75
aF0.71
aF0.63
aF0.75
aF0.78
aF0.75
aF0.75
aF0.71
aF0.71
aF0.67
aF0.75
aF0.71
aF0.75
aF0.9
aF0.71
aF0.71
aF0.75
aF0.75
aF0.67
aF0.63
aF0.67
aF0.82
aF0.71
aF0.71
aF0.75
aF0.67
aF0.71
aF0.75
aF0.71
aF0.71
aF0.55
aF0.59
aF0.75
aF0.63
aF0.75
aF0.67
aF0.75
aF0.71
aF0.78
aF0.67
aF0.71
aF0.71
aF0.75
aF0.75
aF0.75
aF0.71
aF0.67
aF0.75
aF0.67
aF0.71
aF0.75
aF0.71
aF0.75
aF0.78
aF0.71
aF0.75
aF0.78
aF0.71
aF0.71
aF0.59
aF0.71
aF3.49
aF-0.27
aF1.45
aF0.71
aF0.67
aF0.67
aF0.71
aF0.67
aF0.67
aF0.71
aF0.71
aF0.67
aF0.75
aF0.71
aF0.67
aF0.55
aF0.67
aF0.67
aF0.78
aF0.71
aF0.71
aF0.75
aF0.71
aF0.71
aF0.67
aF0.71
aF0.71
aF0.75
aF0.71
aF0.71
aF0.71
aF0.71
aF0.63
aF0.67
aF0.67
aF0.67
aF0.67
aF0.67
aF0.71
aF0.63
aF0.63
aF0.67
aF0.71
aF0.71
aF0.67
aF0.67
aF0.67
aF0.63
aF0.71
aF0.63
aF0.82
aF0.71
aF0.71
aF0.71
aF0.63
aF0.67
aF0.63
aF0.67
aF0.67
aF0.71
aF0.67
aF0.71
aF0.71
aF0.67
aF0.75
aF0.71
aF0.71
aF0.67
aF0.71
aF0.63
aF0.63
aF0.67
aF0.63
aF0.67
aF0.63
aF0.67
aF0.67
aF0.67
aF0.71
aF0.75
aF0.71
aF0.67
aF0.67
aF0.63
aF0.71
aF0.67
aF0.71
aF0.75
aF0.71
aF0.75
aF0.75
aF0.59
aF0.71
aF0.67
aF0.71
aF0.67
aF0.67
aF0.55
aF0.71
aF0.67
aF0.67
aF0.67
aF0.67
aF0.67
aF0.71
aF0.63
aF0.71
aF0.71
aF0.75
aF0.67
aF0.71
aF0.71
aF0.67
aF0.63
aF0.71
aF0.67
aF0.71
aF0.63
aF0.67
aF0.71
aF0.71
aF0.63
aF0.71
aF0.71
aF0.67
aF0.63
aF0.67
aF0.63
aF0.71
aF0.63
aF1.18
aF-0.12
aF-0.39
aF0.75
aF0.75
aF0.63
aF0.71
aF0.59
aF0.67
aF0.75
aF0.78
aF0.71
aF0.55
aF0.75
aF0.67
aF0.75
aF0.78
aF0.71
aF0.75
aF0.67
aF0.75
aF0.78
aF0.71
aF0.82
aF0.67
aF0.71
aF0.75
aF0.67
aF0.59
aF0.71
aF0.71
aF0.71
aF0.75
aF0.67
aF0.9
aF0.67
aF0.75
aF0.75
aF0.78
aF0.75
aF0.71
aF0.78
aF0.75
aF0.78
aF0.71
aF0.75
aF0.75
aF0.75
aF0.71
aF0.47
aF0.67
aF0.71
aF0.94
aF0.71
aF0.63
aF0.71
aF0.55
aF0.71
aF0.78
aF0.78
aF0.75
aF0.82
aF0.86
aF0.51
aF0.86
aF0.71
aF0.86
aF0.71
aF0.75
aF0.67
aF0.67
aF0.86
aF0.63
aF0.71
aF0.78
aF0.71
aF0.63
aF0.43
aF0.78
aF0.67
aF0.82
aF0.82
aF0.67
aF0.75
aF0.59
aF0.71
aF0.78
aF0.71
aF0.86
aF0.39
aF0.47
aF0.94
aF0.55
aF0.63
aF0.82
aF0.71
aF0.75
aF0.82
aF0.55
aF0.55
aF0.78
aF0.71
aF0.67
aF0.59
aF0.78
aF0.78
aF0.82
aF0.67
aF0.71
aF0.78
aF0.75
aF0.71
aF0.78
aF0.78
aF0.63
aF0.78
aF0.59
aF0.75
aF0.75
aF0.71
aF0.59
aF0.67
aF0.75
aF0.63
aF0.67
aF0.71
aF0.75
aF0.75
aF0.67
aF0.82
aF0.78
aF0.75
aF0.78
aF0.98
aF0.71
aF0.67
aF0.67
aF0.9
aF0.75
aF0.71
aF0.78
aF0.67
aF0.71
aF0.71
aF0.75
aF0.71
aF0.67
aF0.78
aF0.75
aF0.75
aF0.86
aF0.59
aF0.67
aF0.82
aF0.71
aF0.75
aF0.67
aF0.71
aF0.78
aF0.67
aF0.78
aF0.71
aF0.67
aF0.75
aF0.78
aF0.63
aF0.82
aF0.75
aF0.67
aF0.71
aF0.71
aF0.75
aF0.78
aF0.78
aF0.71
aF0.63
aF0.75
aF0.82
aF0.82
aF0.71
aF0.71
aF0.71
aF0.78
aF0.75
aF0.75
aF0.75
aF0.71
aF0.67
aF0.71
aF0.75
aF0.75
aF0.82
aF0.71
aF0.75
aF0.78
aF0.71
aF0.78
aF0.71
aF0.75
aF0.78
aF0.78
aF0.75
aF0.67
aF0.75
aF0.71
aF0.75
aF0.75
aF0.75
aF0.75
aF0.71
aF0.67
aF0.75
aF0.75
aF0.78
aF0.75
aF0.75
aF0.71
aF0.67
aF0.78
aF0.78
aF0.75
aF0.75
aF0.78
aF0.75
aF0.75
aF0.71
aF0.71
aF0.75
aF0.71
aF0.71
aF0.75
aF0.71
aF0.86
aF0.71
aF0.71
aF0.75
aF0.75
aF0.75
aF0.71
aF0.75
aF0.63
aF0.78
aF0.67
aF0.86
aF0.75
aF0.67
aF0.75
aF0.75
aF0.67
aF0.71
aF0.75
aF0.67
aF0.78
aF0.75
aF0.75
aF0.82
aF0.78
aF0.67
aF0.75
aF0.71
aF0.71
aF0.78
aF0.71
aF0.71
aF0.71
aF0.75
aF0.71
aF0.75
aF0.75
aF0.94
aF0.67
aF0.71
aF0.63
aF0.78
aF0.71
aF0.71
aF0.71
aF0.67
aF0.78
aF0.71
aF0.71
aF0.71
aF0.75
aF0.71
aF0.75
aF0.71
aF0.67
aF0.71
aF0.71
aF0.78
aF0.71
aF0.75
aF0.78
aF0.75
aF0.67
aF0.75
aF0.75
aF0.71
aF0.71
aF0.78
aF0.71
aF0.75
aF0.75
aF0.71
aF0.75
aF0.78
aF0.75
aF0.75
aF0.63
aF0.71
aF0.78
aF0.67
aF0.82
aF0.67
aF0.71
aF0.75
aF0.71
aF0.75
aF0.75
aF0.71
aF0.75
aF0.75
aF0.71
aF0.71
aF0.75
aF0.75
aF0.71
aF0.75
aF0.75
aF0.67
aF0.75
aF0.75
aF0.71
aF0.75
aF0.78
aF0.75
aF0.67
aF0.67
aF0.67
aF0.71
aF0.71
aF0.71
aF0.75
aF0.75
aF0.75
aF0.75
aF0.71
aF0.75
aF0.75
aF0.82
aF0.63
aF0.24
aF2.0
aF0.08
aF0.51
aF3.65
aF-0.47
aF0.75
aF0.75
aF0.67
aF0.67
aF0.67
aF0.71
aF0.67
aF0.71
aF0.71
aF0.67
aF0.71
aF0.78
aF0.67
aF0.75
aF1.02
aF1.02
aF0.63
aF0.51
aF1.14
aF1.22
aF1.06
aF0.9
aF0.67
aF0.27
aF0.47
aF1.26
aF1.18
aF1.26
aF0.67
aF0.9
aF-0.27
aF0.31
aF1.1
aF0.82
aF0.71
aF0.12
aF-0.16
aF0.9
aF0.82
aF1.33
aF1.37
aF0.82
aF-0.75
aF-1.29
aF-1.8
aF-1.8
aF-0.71
aF1.29
aF1.88
aF1.53
aF1.61
aF0.59
aF-0.35
aF-2.08
aF-2.04
aF-1.77
aF-1.41
aF-0.71
aF1.06
aF1.77
aF1.49
aF1.73
aF0.31
aF-0.63
aF-1.69
aF-1.96
aF-1.14
aF-0.47
aF0.78
aF0.71
aF2.0
aF1.61
aF1.8
aF1.53
aF0.39
aF0.27
aF-0.12
aF-1.14
aF-1.61
aF-1.02
aF0.2
aF1.61
aF1.26
aF2.0
aF2.31
aF1.41
aF1.02
aF0.04
aF-0.51
aF-0.75
aF-0.94
aF0.0
aF1.45
aF1.33
aF1.92
aF0.98
aF-0.04
aF-0.12
aF-0.35
aF-1.18
aF-0.59
aF0.27
aF0.71
aF0.75
aF2.0
aF2.43
aF1.8
aF1.41
aF0.78
aF-0.59
aF-0.63
aF-0.43
aF-0.86
aF0.59
aF1.45
aF1.06
aF0.75
aF1.14
aF1.22
aF0.31
aF0.43
aF0.47
aF1.02
aF0.47
aF0.78
aF0.67
aF0.75
aF0.67
aF0.75
aF0.67
aF0.75
aF0.82
aF0.82
aF0.78
aF0.71
aF0.75
aF0.75
aF0.78
aF0.59
aF0.71
aF0.67
aF0.75
aF0.78
aF0.71
aF0.75
aF0.71
aF0.75
aF0.75
aF0.71
aF0.63
aF0.75
aF0.75
aF0.71
aF0.75
aF0.75
aF0.71
aF0.67
aF0.78
aF0.71
aF0.75
aF0.71
aF0.71
aF0.82
aF0.75
aF0.71
aF0.75
aF0.75
aF0.63
aF0.67
aF0.59
aF0.71
aF0.82
aF0.71
aF0.71
aF0.63
aF0.82
aF0.71
aF0.75
aF0.75
aF0.75
aF0.63
aF0.67
aF0.75
aF0.71
aF0.71
aF0.67
aF0.75
aF0.71
aF0.75
aF0.55
aF0.78
aF0.75
aF0.75
aF0.75
aF0.75
aF0.75
aF0.71
aF0.71
aF0.75
aF0.67
aF0.75
aF0.75
aF0.75
aF0.75
aF0.75
aF0.71
aF0.71
aF0.75
aF0.75
aF0.71
aF0.71
aF0.75
aF0.78
aF0.75
aF0.71
aF0.67
aF0.75
aF0.67
aF0.71
aF0.71
aF0.67
aF0.71
aF0.71
aF0.71
aF0.78
aF0.75
aF0.75
aF0.71
aF0.71
aF0.71
aF0.67
aF0.78
aF0.75
aF0.78
aF0.71
aF0.71
aF0.71
aF0.75
aF0.67
aF0.71
aF0.67
aF0.71
aF0.63
aF0.75
aF0.67
aF0.75
aF0.78
aF0.75
aF0.78
aF0.71
aF0.71
aF0.82
aF0.71
aF0.78
aF0.63
aF0.67
aF0.75
aF0.71
aF0.75
aF0.82
aF0.71
aF0.71
aF0.75
aF0.67
aF0.75
aF0.75
aF0.78
aF0.67
aF0.82
aF0.63
aF0.75
aF0.71
aF0.59
aF0.71
aF0.67
aF0.75
aF0.67
aF0.67
aF0.67
aF0.71
aF0.71
aF0.75
aF0.71
aF0.75
aF0.67
aF0.71
aF0.67
aF0.71
aF0.75
aF0.71
aF0.78
aF0.71
aF0.67
aF0.67
aF0.78
aF0.71
aF0.71
aF0.67
aF0.71
aF0.78
aF0.67
aF0.63
aF0.75
aF0.78
aF0.75
aF0.71
aF0.67
aF0.71
aF0.71
aF0.75
aF0.71
aF0.67
aF0.67
aF0.67
aF0.75
aF0.75
aF0.67
aF0.75
aF0.75
aF0.82
aF0.71
aF0.71
aF0.75
aF0.75
aF0.71
aF0.78
aF0.67
aF0.75
aF0.71
aF0.71
aF0.78
aF0.71
aF0.75
aF0.67
aF0.67
aF0.67
aF0.71
aF0.67
aF0.71
aF0.71
aF0.71
aF0.75
aF0.75
aF0.75
aF0.71
aF0.75
aF0.63
aF0.75
aF0.71
aF0.78
aF0.75
aF0.75
aF0.71
aF0.71
aF0.67
aF0.75
aF0.78
aF0.67
aF0.63
aF0.71
aF0.67
aF0.71
aF0.71
aF0.71
aF0.75
aF0.75
aF0.71
aF0.67
aF0.71
aF0.67
aF0.71
aF0.67
aF0.75
aF0.63
aF0.67
aF0.75
aF0.71
aF0.75
aF0.71
aF0.71
aF0.75
aF0.67
aF0.75
aF0.71
aF0.67
aF0.78
aF0.75
aF0.71
aF0.71
aF0.71
aF0.67
aF0.71
aF0.71
aF0.71
aF0.67
aF0.78
aF0.71
aF0.67
aF0.71
aF0.78
aF0.78
aF0.75
aF0.71
aF0.67
aF0.67
aF0.75
aF0.75
aF0.75
aF0.78
aF0.67
aF0.67
aa(lp5
F0.0
aF0.0
aF0.0
aF-0.07
aF0.0
aF0.0
aF0.0
aF0.0
aF0.0
aF0.0
aF0.0
aF0.0
aF0.0
aF0.0
aF0.0
aF0.0
aF0.0
aF-0.07
aF0.0
aF-0.07
aF-0.07
aF0.0
aF-0.07
aF0.0
aF0.0
aF0.0
aF0.0
aF-0.07
aF0.0
aF0.0
aF0.0
aF0.0
aF0.0
aF-0.07
aF-0.07
aF0.0
aF0.0
aF0.0
aF0.0
aF0.0
aF0.0
aF0.0
aF0.0
aF0.0
aF0.0
aF0.0
aF0.0
aF0.0
aF0.0
aF0.0
aF-0.07
aF0.0
aF0.0
aF0.0
aF-0.07
aF-0.07
aF-0.14
aF-0.07
aF0.0
aF0.0
aF0.0
aF-0.07
aF0.14
aF0.14
aF0.0
aF0.0
aF0.0
aF0.0
aF0.0
aF0.0
aF0.0
aF0.0
aF-0.07
aF0.0
aF0.0
aF0.0
aF-0.07
aF0.0
aF0.0
aF0.0
aF-0.07
aF0.0
aF0.0
aF0.0
aF0.0
aF0.0
aF0.0
aF0.0
aF0.0
aF0.0
aF-0.07
aF0.0
aF0.0
aF0.0
aF-0.07
aF-0.14
aF0.07
aF-0.14
aF-0.28
aF-0.63
aF-0.49
aF-3.97
aF-0.7
aF-0.14
aF-0.07
aF0.07
aF0.35
aF0.14
aF0.0
aF0.0
aF0.0
aF0.0
aF0.0
aF0.0
aF0.0
aF0.0
aF0.0
aF0.0
aF0.0
aF0.0
aF0.0
aF0.0
aF0.0
aF0.0
aF0.0
aF0.0
aF0.0
aF0.0
aF0.0
aF0.0
aF0.0
aF-0.07
aF0.0
aF0.0
aF-0.07
aF0.0
aF-0.07
aF0.0
aF-0.07
aF0.0
aF0.0
aF0.0
aF0.0
aF-0.07
aF0.0
aF0.0
aF0.0
aF0.0
aF0.0
aF0.0
aF0.0
aF0.0
aF0.0
aF0.0
aF0.0
aF0.0
aF0.0
aF0.0
aF0.0
aF0.0
aF0.0
aF0.0
aF0.0
aF-0.07
aF0.0
aF0.0
aF0.0
aF0.0
aF-0.07
aF-0.07
aF0.0
aF0.0
aF0.0
aF-0.07
aF0.0
aF0.0
aF0.0
aF-0.07
aF0.0
aF0.0
aF0.0
aF0.0
aF0.0
aF0.0
aF0.0
aF0.0
aF0.0
aF0.0
aF0.0
aF0.0
aF0.0
aF-0.07
aF-0.07
aF-0.07
aF0.0
aF0.0
aF0.0
aF-0.07
aF0.0
aF0.0
aF-0.07
aF-0.07
aF0.0
aF0.0
aF0.0
aF0.0
aF0.0
aF0.0
aF0.0
aF0.0
aF0.0
aF0.0
aF0.0
aF0.0
aF-0.07
aF-0.07
aF0.0
aF0.0
aF0.0
aF-0.07
aF0.0
aF0.0
aF-0.07
aF0.0
aF0.0
aF-0.07
aF0.0
aF0.0
aF0.0
aF0.0
aF0.0
aF-0.07
aF0.42
aF2.5
aF1.46
aF0.42
aF0.0
aF0.0
aF0.21
aF0.49
aF0.14
aF0.07
aF0.0
aF0.0
aF0.0
aF0.0
aF0.0
aF0.0
aF0.0
aF0.0
aF-0.07
aF-0.07
aF0.0
aF0.0
aF0.0
aF0.0
aF0.0
aF0.0
aF0.0
aF0.0
aF0.0
aF-0.07
aF0.0
aF0.0
aF0.0
aF-0.07
aF-0.07
aF0.0
aF-0.07
aF0.0
aF0.0
aF0.0
aF-0.07
aF0.0
aF-0.07
aF0.0
aF0.0
aF-0.07
aF-0.07
aF-0.14
aF-0.21
aF-0.28
aF-0.14
aF-0.28
aF-0.14
aF-0.21
aF-0.07
aF-0.14
aF-0.07
aF-0.14
aF-0.07
aF-0.14
aF-0.07
aF-0.07
aF-0.21
aF0.0
aF0.0
aF0.0
aF-0.28
aF0.0
aF-0.14
aF-0.14
aF-0.14
aF-0.14
aF-0.07
aF-0.14
aF-0.07
aF-0.07
aF-0.07
aF-0.07
aF-0.07
aF-0.14
aF-0.14
aF-0.14
aF-0.07
aF-0.07
aF-0.07
aF-0.07
aF-0.14
aF-0.07
aF-0.14
aF-0.14
aF-0.14
aF-0.07
aF-0.14
aF-0.14
aF-0.14
aF-0.14
aF-0.07
aF-0.14
aF-0.14
aF-0.07
aF-0.07
aF-0.14
aF-0.07
aF-0.07
aF-0.07
aF0.0
aF-0.07
aF-0.07
aF-0.07
aF-0.07
aF-0.07
aF-0.14
aF-0.07
aF-0.07
aF-0.07
aF-0.14
aF-0.14
aF-0.14
aF0.0
aF0.0
aF0.0
aF0.0
aF0.0
aF0.0
aF0.07
aF0.07
aF0.07
aF0.07
aF0.07
aF0.07
aF0.14
aF0.14
aF0.14
aF0.21
aF0.14
aF0.14
aF0.21
aF0.14
aF0.14
aF0.14
aF0.14
aF0.14
aF0.07
aF0.14
aF0.21
aF0.14
aF0.21
aF0.14
aF0.21
aF0.21
aF0.07
aF0.07
aF0.07
aF0.0
aF0.0
aF0.0
aF0.07
aF0.0
aF0.0
aF0.0
aF0.0
aF0.21
aF0.14
aF0.07
aF0.0
aF0.07
aF0.0
aF0.07
aF0.0
aF0.0
aF0.0
aF0.0
aF0.0
aF0.0
aF0.0
aF-0.07
aF-0.14
aF-0.14
aF-0.07
aF0.0
aF0.0
aF0.0
aF0.0
aF0.07
aF0.07
aF0.0
aF0.0
aF0.0
aF0.0
aF0.0
aF0.0
aF0.0
aF0.0
aF0.07
aF0.0
aF0.0
aF0.0
aF0.0
aF0.0
aF0.0
aF0.0
aF0.0
aF0.07
aF0.0
aF0.0
aF0.0
aF0.0
aF0.0
aF0.0
aF0.0
aF0.0
aF0.0
aF0.14
aF0.63
aF0.21
aF0.0
aF0.0
aF0.0
aF0.0
aF0.0
aF-0.21
aF-0.21
aF-0.07
aF-0.07
aF-0.07
aF0.0
aF0.0
aF-0.07
aF0.0
aF0.0
aF0.0
aF0.0
aF0.0
aF0.0
aF0.0
aF0.0
aF0.0
aF0.0
aF0.0
aF0.0
aF0.0
aF0.0
aF-0.07
aF-0.07
aF0.0
aF0.0
aF0.0
aF0.0
aF0.0
aF0.0
aF0.0
aF0.0
aF0.0
aF0.0
aF0.0
aF0.0
aF0.0
aF0.0
aF0.0
aF0.0
aF0.0
aF0.0
aF0.0
aF0.0
aF0.0
aF0.0
aF0.0
aF0.0
aF0.0
aF0.0
aF0.0
aF0.0
aF0.0
aF0.0
aF-0.07
aF0.0
aF0.0
aF0.0
aF0.0
aF0.0
aF0.0
aF0.0
aF0.07
aF0.0
aF0.0
aF0.0
aF0.0
aF0.0
aF0.0
aF0.0
aF0.0
aF0.0
aF0.0
aF0.0
aF0.0
aF0.0
aF0.0
aF0.07
aF0.0
aF0.0
aF0.0
aF0.0
aF0.0
aF0.0
aF0.0
aF0.0
aF0.0
aF0.0
aF0.0
aF0.0
aF0.0
aF0.0
aF0.0
aF0.07
aF0.0
aF0.0
aF0.0
aF-0.07
aF0.0
aF0.0
aF0.07
aF0.0
aF0.0
aF0.0
aF0.0
aF0.0
aF0.0
aF0.0
aF0.0
aF0.0
aF0.0
aF0.0
aF0.0
aF0.0
aF0.07
aF0.0
aF0.07
aF0.07
aF0.0
aF0.0
aF0.0
aF0.0
aF0.0
aF0.0
aF0.0
aF0.0
aF0.14
aF0.28
aF-0.07
aF-0.14
aF-0.21
aF-1.46
aF-0.35
aF2.85
aF1.04
aF-2.02
aF-0.97
aF0.0
aF0.0
aF0.0
aF0.0
aF0.07
aF0.0
aF0.0
aF0.07
aF0.07
aF0.14
aF0.07
aF0.0
aF0.07
aF0.0
aF0.0
aF0.14
aF0.49
aF10.37
aF9.18
aF8.21
aF-3.97
aF-28.94
aF-8.14
aF-7.93
aF8.9
aF27.69
aF16.97
aF-8.35
aF-30.75
aF-15.79
aF-14.19
aF21.36
aF17.53
aF-3.27
aF-32.97
aF-29.77
aF16.9
aF40.0
aF21.29
aF27.06
aF-20.24
aF-50.64
aF-74.78
aF-56.77
aF-20.1
aF33.04
aF85.01
aF77.84
aF51.62
aF27.41
aF-21.08
aF-71.79
aF-82.92
aF-50.43
aF-22.05
aF10.16
aF47.93
aF78.68
aF89.88
aF70.19
aF20.38
aF-48.63
aF-73.74
aF-76.8
aF-51.27
aF-10.5
aF51.62
aF67.97
aF81.25
aF59.48
aF34.99
aF34.71
aF3.83
aF-18.02
aF-36.94
aF-43.41
aF-37.15
aF-41.32
aF-6.82
aF45.84
aF81.32
aF68.1
aF59.13
aF34.78
aF12.38
aF-32.63
aF-50.57
aF-61.43
aF-42.5
aF-15.79
aF27.48
aF55.72
aF69.84
aF56.97
aF13.29
aF-40.49
aF-57.67
aF-43.41
aF-32.14
aF-1.39
aF34.3
aF42.02
aF30.82
aF51.34
aF74.5
aF56.28
aF-10.16
aF-51.41
aF-64.97
aF-54.54
aF-31.58
aF-1.67
aF36.24
aF57.81
aF42.5
aF17.18
aF7.79
aF-3.62
aF-21.15
aF-14.33
aF-8.77
aF8.0
aF-4.59
aF18.23
aF2.5
aF-6.82
aF-3.06
aF-0.35
aF0.0
aF-0.07
aF0.0
aF0.9
aF0.14
aF0.0
aF-0.63
aF-0.14
aF0.21
aF0.77
aF0.35
aF0.07
aF0.07
aF0.0
aF0.0
aF0.0
aF0.0
aF0.0
aF0.0
aF0.0
aF0.0
aF0.0
aF0.0
aF0.0
aF0.0
aF0.0
aF0.0
aF0.0
aF0.0
aF0.0
aF0.0
aF0.0
aF0.0
aF0.0
aF0.0
aF0.0
aF0.0
aF0.0
aF0.0
aF0.0
aF0.0
aF0.0
aF0.0
aF0.0
aF0.07
aF0.0
aF0.07
aF0.0
aF0.0
aF0.0
aF0.0
aF0.0
aF0.0
aF0.0
aF0.0
aF0.07
aF0.0
aF0.0
aF0.0
aF0.0
aF0.0
aF0.14
aF0.0
aF0.0
aF0.07
aF0.0
aF0.0
aF0.0
aF0.0
aF0.0
aF0.0
aF0.0
aF0.0
aF0.0
aF0.0
aF0.0
aF0.07
aF0.0
aF0.0
aF0.0
aF0.07
aF0.0
aF0.0
aF0.0
aF0.0
aF0.0
aF0.0
aF0.0
aF0.0
aF0.0
aF0.0
aF0.0
aF0.0
aF0.0
aF0.07
aF0.0
aF0.07
aF0.0
aF0.0
aF0.0
aF0.0
aF0.0
aF0.0
aF0.07
aF0.0
aF0.0
aF0.0
aF0.0
aF0.0
aF0.0
aF0.0
aF0.0
aF0.0
aF0.0
aF0.0
aF0.0
aF0.0
aF0.0
aF0.0
aF0.0
aF0.0
aF0.0
aF0.0
aF0.0
aF0.0
aF0.0
aF0.0
aF0.0
aF0.0
aF0.0
aF0.0
aF0.0
aF0.0
aF0.0
aF0.0
aF0.0
aF0.0
aF0.0
aF0.0
aF0.0
aF0.0
aF0.0
aF0.0
aF0.0
aF0.0
aF0.0
aF0.0
aF0.07
aF0.0
aF0.0
aF0.0
aF0.0
aF0.0
aF0.0
aF0.0
aF0.0
aF0.0
aF0.0
aF0.07
aF0.0
aF0.0
aF0.0
aF0.0
aF0.0
aF0.0
aF0.0
aF0.0
aF0.0
aF0.0
aF0.0
aF0.0
aF0.0
aF0.0
aF0.0
aF0.0
aF0.0
aF0.0
aF0.0
aF0.0
aF0.0
aF0.0
aF0.0
aF0.0
aF0.0
aF0.0
aF0.0
aF0.0
aF0.0
aF0.0
aF0.0
aF0.0
aF0.0
aF0.0
aF0.0
aF0.07
aF0.0
aF0.0
aF0.0
aF0.0
aF0.0
aF0.0
aF0.0
aF0.0
aF0.0
aF0.0
aF0.0
aF0.0
aF0.0
aF0.0
aF0.0
aF0.0
aF0.0
aF0.0
aF0.0
aF0.0
aF0.0
aF0.0
aF0.0
aF0.0
aF0.0
aF0.0
aF0.0
aF0.0
aF0.0
aF0.0
aF0.0
aF0.0
aF0.0
aF0.0
aF0.0
aF0.0
aF0.0
aF0.0
aF-0.07
aF0.0
aF0.0
aF0.07
aF0.0
aF0.0
aF0.0
aF0.0
aF0.0
aF0.0
aF0.0
aF0.0
aF0.0
aF0.0
aF0.0
aF0.0
aF0.0
aF0.0
aF0.0
aF0.0
aF0.0
aF0.0
aF0.0
aF0.0
aF0.0
aF0.0
aF0.0
aF0.07
aF0.07
aF0.0
aF0.0
aF0.0
aF0.0
aF0.0
aF0.0
aF0.0
aF0.0
aF0.0
aF0.0
aF0.0
aF0.0
aF0.0
aF0.0
aF0.0
aF0.0
aF0.0
aF0.0
aF0.0
aF0.0
aF0.0
aa(lp6
F-0.07
aF-0.07
aF-0.07
aF0.0
aF-0.07
aF-0.07
aF-0.07
aF-0.07
aF-0.07
aF-0.07
aF-0.07
aF0.0
aF0.0
aF0.0
aF-0.07
aF-0.07
aF-0.07
aF-0.07
aF-0.07
aF-0.07
aF-0.07
aF-0.07
aF-0.07
aF0.0
aF-0.07
aF-0.07
aF-0.07
aF-0.07
aF-0.07
aF-0.07
aF-0.07
aF-0.07
aF-0.07
aF-0.07
aF-0.07
aF-0.07
aF-0.07
aF-0.07
aF-0.07
aF-0.07
aF-0.07
aF-0.07
aF-0.07
aF0.0
aF-0.07
aF-0.07
aF-0.07
aF-0.07
aF-0.07
aF-0.07
aF-0.07
aF-0.07
aF-0.07
aF-0.07
aF-0.07
aF-0.07
aF-0.07
aF-0.07
aF0.0
aF0.0
aF-0.07
aF0.0
aF-0.07
aF-0.07
aF-0.07
aF-0.07
aF-0.07
aF-0.07
aF-0.07
aF-0.07
aF0.0
aF-0.07
aF-0.07
aF-0.07
aF-0.07
aF0.0
aF0.0
aF-0.07
aF-0.07
aF-0.07
aF0.0
aF-0.07
aF-0.07
aF-0.07
aF-0.07
aF0.0
aF-0.07
aF0.0
aF0.0
aF-0.07
aF-0.07
aF-0.07
aF-0.07
aF-0.07
aF-0.07
aF-0.07
aF-0.07
aF-0.07
aF-0.07
aF0.0
aF-0.07
aF-217.25
aF-237.01
aF-88.7
aF-53.57
aF-9.81
aF-1.04
aF-0.14
aF-0.07
aF-0.07
aF-0.07
aF0.0
aF-0.07
aF-0.07
aF0.0
aF0.0
aF-0.07
aF-0.07
aF-0.07
aF-0.07
aF-0.07
aF-0.07
aF0.0
aF-0.07
aF-0.07
aF-0.07
aF-0.07
aF-0.07
aF-0.07
aF-0.07
aF-0.07
aF-0.07
aF-0.07
aF-0.07
aF-0.07
aF-0.07
aF0.0
aF-0.07
aF-0.07
aF-0.07
aF-0.07
aF-0.07
aF-0.07
aF-0.07
aF-0.07
aF-0.07
aF-0.07
aF-0.07
aF-0.07
aF-0.07
aF-0.07
aF-0.07
aF-0.07
aF-0.07
aF-0.07
aF-0.07
aF-0.07
aF-0.07
aF-0.07
aF-0.07
aF-0.07
aF-0.07
aF-0.07
aF-0.07
aF-0.07
aF-0.07
aF-0.07
aF-0.07
aF-0.07
aF-0.07
aF-0.07
aF-0.07
aF-0.07
aF-0.07
aF-0.07
aF-0.07
aF-0.07
aF-0.07
aF-0.07
aF-0.07
aF-0.07
aF-0.07
aF-0.07
aF-0.07
aF0.0
aF-0.07
aF-0.07
aF-0.07
aF0.0
aF-0.07
aF-0.07
aF-0.07
aF-0.07
aF-0.07
aF-0.07
aF-0.07
aF-0.07
aF-0.07
aF-0.07
aF0.0
aF-0.07
aF-0.07
aF-0.07
aF-0.07
aF-0.07
aF0.0
aF0.0
aF-0.07
aF-0.07
aF-0.07
aF0.0
aF-0.07
aF-0.07
aF-0.07
aF-0.07
aF0.0
aF-0.07
aF-0.07
aF0.0
aF-0.07
aF-0.07
aF-0.07
aF0.0
aF-0.07
aF-0.07
aF-0.07
aF-0.07
aF-0.07
aF-0.07
aF-0.07
aF-0.07
aF0.0
aF55.37
aF323.2
aF165.77
aF58.02
aF11.55
aF1.04
aF-0.14
aF-0.07
aF-0.07
aF-0.07
aF-0.07
aF-0.07
aF-0.07
aF-0.07
aF-0.07
aF-0.07
aF-0.07
aF-0.07
aF-0.07
aF-0.07
aF-0.07
aF-0.07
aF-0.07
aF-0.07
aF-0.07
aF-0.07
aF-0.07
aF-0.07
aF-0.07
aF-0.07
aF-0.07
aF-0.07
aF-0.07
aF-0.07
aF-0.07
aF-0.07
aF-0.07
aF-0.07
aF-0.07
aF-0.07
aF-0.07
aF-0.07
aF-0.07
aF-0.07
aF-0.07
aF0.0
aF-0.07
aF-0.07
aF-0.07
aF-4.8
aF-8.7
aF-16.77
aF-4.45
aF-17.6
aF-9.18
aF-10.23
aF-7.3
aF-7.79
aF-6.12
aF-7.72
aF-7.51
aF-4.66
aF-14.05
aF-3.55
aF-10.99
aF-5.29
aF-20.66
aF-2.43
aF-12.38
aF-6.61
aF-6.89
aF-15.79
aF-2.5
aF-12.66
aF-2.16
aF-5.57
aF-5.57
aF-4.03
aF-3.76
aF-10.02
aF-6.89
aF-12.52
aF-7.86
aF-8.14
aF-6.61
aF-4.24
aF-11.83
aF-8.83
aF-10.64
aF-10.92
aF-9.67
aF-11.48
aF-9.88
aF-4.66
aF-11.76
aF-9.81
aF-7.58
aF-10.57
aF-14.4
aF-5.15
aF-6.33
aF-7.44
aF-5.84
aF-5.77
aF-5.98
aF-5.7
aF-5.29
aF-4.03
aF-5.36
aF-8.0
aF-8.42
aF-8.42
aF-7.86
aF-4.17
aF-4.66
aF-8.63
aF-7.86
aF-8.9
aF-2.23
aF-0.21
aF2.57
aF5.7
aF2.3
aF5.08
aF5.36
aF7.17
aF8.28
aF10.23
aF8.07
aF12.1
aF9.04
aF11.76
aF10.92
aF19.48
aF13.57
aF15.23
aF17.53
aF16.42
aF13.15
aF14.47
aF19.9
aF15.58
aF13.29
aF13.98
aF15.3
aF12.38
aF19.76
aF13.84
aF16.49
aF15.37
aF10.37
aF12.24
aF3.06
aF6.47
aF0.7
aF2.23
aF6.75
aF0.63
aF0.0
aF-0.07
aF1.67
aF20.94
aF10.37
aF8.49
aF2.23
aF6.4
aF2.85
aF3.55
aF0.28
aF-0.07
aF-0.07
aF-0.07
aF-0.07
aF-0.07
aF-0.07
aF-0.07
aF-0.07
aF-0.07
aF-0.07
aF-0.07
aF-0.07
aF-0.14
aF-0.14
aF-0.07
aF-0.07
aF-0.07
aF-0.07
aF-0.14
aF-0.07
aF-0.07
aF-0.14
aF-0.07
aF-0.07
aF-0.07
aF-0.14
aF-0.07
aF-0.07
aF-0.07
aF-0.07
aF-0.07
aF-0.07
aF-0.07
aF-0.07
aF-0.07
aF-0.07
aF-0.07
aF-0.07
aF-0.07
aF-0.07
aF-0.07
aF-0.07
aF-0.07
aF-0.07
aF-0.07
aF-0.07
aF-0.07
aF-0.07
aF-0.07
aF-0.07
aF-0.07
aF-0.07
aF-0.14
aF-0.14
aF-0.07
aF-0.07
aF-0.07
aF-0.14
aF-0.21
aF-0.14
aF-0.14
aF-0.14
aF-0.07
aF-0.07
aF-0.07
aF-0.07
aF-0.07
aF-0.07
aF-0.07
aF-0.28
aF-0.35
aF-0.14
aF-0.07
aF-4.94
aF-8.0
aF-2.85
aF-0.56
aF-0.14
aF-0.14
aF-0.07
aF-0.07
aF-0.14
aF-0.07
aF-0.07
aF-0.07
aF-0.07
aF-0.07
aF-0.07
aF-0.07
aF-0.07
aF-0.07
aF-0.07
aF-0.07
aF-0.07
aF-0.07
aF-0.07
aF-0.07
aF-0.07
aF-0.07
aF-0.07
aF-0.07
aF-0.07
aF-0.07
aF-0.07
aF-0.07
aF-0.07
aF-0.07
aF-0.07
aF-0.07
aF-0.07
aF-0.07
aF-0.14
aF-0.14
aF-0.07
aF-0.07
aF-0.07
aF-0.07
aF-0.07
aF-0.07
aF-0.07
aF-0.07
aF-0.07
aF-0.14
aF-0.07
aF-0.07
aF-0.07
aF-0.14
aF-0.07
aF-0.07
aF-0.07
aF-0.14
aF-0.07
aF-0.07
aF-0.14
aF-0.07
aF-0.07
aF-0.07
aF-0.07
aF-0.07
aF-0.14
aF-0.07
aF-0.07
aF-0.07
aF-0.07
aF-0.07
aF-0.07
aF-0.07
aF-0.07
aF-0.14
aF-0.14
aF-0.07
aF-0.07
aF-0.07
aF-0.14
aF-0.07
aF-0.07
aF-0.07
aF-0.07
aF-0.07
aF-0.07
aF-0.14
aF-0.07
aF-0.07
aF-0.07
aF-0.07
aF-0.07
aF-0.14
aF-0.07
aF-0.07
aF-0.07
aF-0.07
aF-0.07
aF-0.14
aF-0.14
aF-0.14
aF-0.07
aF-0.14
aF-0.07
aF-0.14
aF-0.14
aF-0.07
aF-0.28
aF-161.53
aF-42.37
aF317.29
aF82.37
aF-227.13
aF-105.39
aF-10.09
aF-1.11
aF-0.21
aF-0.07
aF-0.07
aF-0.07
aF-0.14
aF-0.07
aF0.0
aF1.18
aF0.0
aF-0.14
aF-0.14
aF-0.07
aF0.28
aF14.26
aF23.17
aF26.43
aF6.4
aF6.47
aF8.35
aF13.98
aF14.05
aF5.84
aF6.4
aF-0.35
aF-5.63
aF1.88
aF8.7
aF9.46
aF9.32
aF8.77
aF-4.24
aF-7.3
aF-10.37
aF4.1
aF8.63
aF-0.35
aF4.24
aF8.21
aF-1.88
aF-1.74
aF-20.31
aF-39.37
aF-35.9
aF-15.58
aF11.76
aF14.96
aF21.84
aF17.95
aF2.3
aF-23.65
aF-43.55
aF-40.21
aF-30.89
aF-18.78
aF-10.3
aF4.52
aF22.4
aF24.28
aF13.84
aF-8.77
aF-20.1
aF-33.18
aF-35.97
aF-26.3
aF-24.42
aF-15.1
aF18.23
aF35.2
aF21.5
aF22.33
aF13.36
aF-5.77
aF-16.63
aF-33.53
aF-37.84
aF-42.78
aF-39.44
aF-32.49
aF-14.4
aF14.4
aF21.15
aF10.99
aF11.48
aF3.62
aF-15.03
aF-25.74
aF-30.96
aF-28.8
aF-20.73
aF-6.68
aF16.42
aF27.41
aF20.66
aF1.95
aF-19.83
aF-32.7
aF-36.73
aF-20.38
aF-17.25
aF-15.3
aF8.42
aF24.14
aF26.23
aF12.66
aF-15.17
aF-19.2
aF-29.15
aF-27.97
aF-21.5
aF-4.94
aF2.57
aF0.28
aF12.17
aF24.35
aF21.01
aF12.31
aF-8.56
aF-5.98
aF-10.5
aF-5.43
aF-10.99
aF-1.39
aF-2.23
aF3.34
aF0.83
aF-1.53
aF-1.74
aF-1.67
aF-1.95
aF-3.55
aF-1.74
aF-0.9
aF-3.34
aF-3.48
aF-1.46
aF-0.21
aF3.2
aF0.49
aF-0.07
aF-0.14
aF-0.07
aF-0.07
aF-0.07
aF-0.14
aF-0.14
aF-0.14
aF-0.14
aF-0.07
aF-0.14
aF-0.14
aF-0.14
aF-0.14
aF-0.14
aF-0.14
aF-0.14
aF-0.14
aF-0.14
aF-0.14
aF-0.14
aF-0.14
aF-0.14
aF-0.14
aF-0.14
aF-0.07
aF-0.07
aF-0.07
aF-0.14
aF-0.14
aF-0.14
aF-0.14
aF-0.14
aF-0.07
aF-0.14
aF-0.14
aF-0.14
aF-0.14
aF-0.14
aF-0.14
aF-0.14
aF-0.14
aF-0.14
aF-0.14
aF-0.14
aF-0.07
aF-0.14
aF-0.07
aF-0.07
aF-0.07
aF-0.07
aF-0.14
aF-0.14
aF-0.14
aF-0.14
aF-0.14
aF-0.14
aF-0.14
aF-0.14
aF-0.07
aF-0.14
aF-0.07
aF-0.07
aF-0.07
aF-0.07
aF-0.07
aF-0.14
aF-0.14
aF-0.14
aF-0.14
aF-0.14
aF-0.14
aF-0.07
aF-0.14
aF-0.14
aF-0.14
aF-0.14
aF-0.14
aF-0.14
aF-0.14
aF-0.07
aF-0.14
aF-0.14
aF-0.14
aF-0.14
aF-0.14
aF-0.14
aF-0.07
aF-0.07
aF-0.14
aF-0.14
aF-0.14
aF-0.14
aF-0.07
aF-0.07
aF-0.07
aF-0.07
aF-0.07
aF-0.07
aF-0.07
aF-0.14
aF-0.14
aF-0.07
aF-0.14
aF-0.14
aF-0.14
aF-0.14
aF-0.14
aF-0.14
aF-0.07
aF-0.14
aF-0.14
aF-0.14
aF-0.14
aF-0.14
aF-0.14
aF-0.07
aF-0.07
aF-0.07
aF-0.07
aF-0.14
aF-0.14
aF-0.14
aF-0.14
aF-0.07
aF-0.07
aF-0.07
aF-0.14
aF-0.14
aF-0.14
aF-0.14
aF-0.07
aF-0.07
aF-0.07
aF-0.07
aF-0.07
aF-0.14
aF-0.14
aF-0.07
aF-0.07
aF-0.14
aF-0.07
aF-0.07
aF-0.14
aF-0.07
aF-0.14
aF-0.14
aF-0.14
aF-0.14
aF-0.07
aF-0.14
aF-0.07
aF-0.07
aF-0.07
aF-0.07
aF-0.14
aF-0.14
aF-0.07
aF-0.07
aF-0.14
aF-0.07
aF-0.14
aF-0.07
aF-0.07
aF-0.14
aF-0.14
aF-0.14
aF-0.07
aF-0.14
aF-0.14
aF-0.07
aF-0.14
aF-0.14
aF-0.07
aF-0.07
aF-0.14
aF-0.07
aF-0.07
aF-0.14
aF-0.07
aF-0.07
aF-0.07
aF-0.14
aF-0.14
aF-0.07
aF-0.07
aF-0.07
aF-0.07
aF-0.07
aF-0.07
aF-0.14
aF-0.07
aF-0.14
aF-0.14
aF-0.07
aF-0.07
aF-0.07
aF-0.14
aF-0.07
aF-0.07
aF-0.14
aF-0.07
aF-0.14
aF-0.14
aF-0.14
aF-0.07
aF-0.07
aF-0.07
aF-0.07
aF-0.07
aF-0.07
aF-0.07
aF-0.07
aF-0.07
aF-0.07
aF-0.07
aF-0.14
aF-0.14
aF-0.14
aF-0.14
aF-0.07
aF-0.14
aF-0.14
aF-0.14
aF-0.07
aF-0.07
aF-0.07
aF-0.14
aF-0.07
aF-0.07
aF-0.07
aF-0.07
aF-0.07
aF-0.07
aF-0.14
aF-0.07
aF-0.14
aF-0.07
aF-0.07
aF-0.07
aF-0.07
aF-0.07
aF-0.07
aF-0.07
aF-0.07
aF-0.07
aF-0.07
aF-0.07
aF-0.07
aF-0.07
aF-0.07
aF-0.07
aF-0.07
aF-0.07
aF-0.07
aF-0.07
aF-0.07
aF-0.07
aF-0.07
aF-0.07
aF-0.07
aF-0.14
aF-0.07
aF-0.07
aF-0.07
aF-0.07
aF-0.07
aF-0.07
aF-0.07
aF-0.07
aF-0.07
aa(lp7
F0.0
aF0.0
aF0.07
aF0.0
aF0.07
aF0.0
aF0.07
aF0.07
aF0.07
aF0.0
aF0.0
aF0.07
aF0.07
aF0.07
aF0.07
aF0.07
aF0.07
aF0.0
aF0.07
aF0.0
aF0.0
aF0.07
aF0.07
aF0.07
aF0.0
aF0.07
aF0.07
aF0.07
aF0.07
aF0.07
aF0.07
aF0.0
aF0.07
aF0.07
aF0.0
aF0.0
aF0.07
aF0.07
aF0.0
aF0.0
aF0.0
aF0.0
aF0.07
aF0.0
aF0.07
aF0.07
aF0.07
aF0.07
aF0.07
aF0.07
aF0.07
aF0.07
aF0.07
aF0.0
aF0.07
aF0.07
aF0.07
aF0.07
aF0.0
aF0.0
aF0.0
aF0.0
aF-0.07
aF0.07
aF0.0
aF0.0
aF0.0
aF0.0
aF0.07
aF0.07
aF0.07
aF0.07
aF0.07
aF0.07
aF0.07
aF0.07
aF0.07
aF0.07
aF0.07
aF0.07
aF0.07
aF0.07
aF0.07
aF0.0
aF0.0
aF0.07
aF0.0
aF0.0
aF0.0
aF0.07
aF0.07
aF0.0
aF0.0
aF0.0
aF0.0
aF0.0
aF0.07
aF0.07
aF-0.14
aF-0.28
aF0.14
aF-9.25
aF-10.16
aF-4.03
aF-2.78
aF-0.56
aF-0.07
aF0.0
aF0.0
aF0.0
aF0.0
aF0.0
aF0.0
aF0.07
aF0.07
aF0.0
aF0.0
aF0.07
aF0.07
aF0.07
aF0.07
aF0.07
aF0.0
aF0.07
aF0.0
aF0.07
aF0.0
aF0.07
aF0.07
aF0.07
aF0.07
aF0.07
aF0.07
aF0.0
aF0.07
aF0.07
aF0.07
aF0.07
aF0.07
aF0.07
aF0.07
aF0.07
aF0.0
aF0.0
aF0.0
aF0.07
aF0.07
aF0.0
aF0.07
aF0.07
aF0.07
aF0.07
aF0.07
aF0.07
aF0.0
aF0.07
aF0.07
aF0.0
aF0.07
aF0.0
aF0.0
aF0.0
aF0.07
aF0.07
aF0.07
aF0.07
aF0.0
aF0.0
aF0.0
aF0.07
aF0.07
aF0.07
aF0.07
aF0.07
aF0.07
aF0.07
aF0.0
aF0.07
aF0.07
aF0.07
aF0.07
aF0.07
aF0.07
aF0.0
aF0.0
aF0.07
aF0.07
aF0.07
aF0.07
aF0.07
aF0.0
aF0.0
aF0.0
aF0.0
aF0.07
aF0.07
aF0.07
aF0.0
aF0.0
aF0.07
aF0.07
aF0.0
aF0.07
aF0.07
aF0.07
aF0.07
aF0.07
aF0.07
aF0.07
aF0.07
aF0.07
aF0.07
aF0.07
aF0.07
aF0.0
aF0.07
aF0.07
aF0.07
aF0.07
aF0.07
aF0.07
aF0.07
aF0.07
aF0.0
aF0.07
aF0.0
aF0.07
aF0.0
aF0.07
aF0.07
aF0.0
aF-0.07
aF3.06
aF15.51
aF8.07
aF2.85
aF0.63
aF0.0
aF-0.28
aF0.0
aF0.0
aF0.0
aF0.07
aF0.0
aF0.07
aF0.07
aF0.07
aF0.0
aF0.0
aF0.07
aF0.0
aF0.0
aF0.07
aF0.0
aF0.07
aF0.07
aF0.07
aF0.07
aF0.07
aF0.0
aF0.0
aF0.07
aF0.0
aF0.07
aF0.07
aF0.07
aF0.07
aF0.07
aF0.07
aF0.07
aF0.07
aF0.07
aF0.07
aF0.07
aF0.0
aF0.0
aF0.0
aF0.0
aF0.07
aF0.07
aF0.07
aF-0.14
aF-0.35
aF-0.83
aF-0.21
aF-0.83
aF-0.35
aF-0.49
aF-0.28
aF-0.35
aF-0.28
aF-0.35
aF-0.28
aF-0.14
aF-0.63
aF-0.07
aF-0.42
aF-0.21
aF-0.9
aF-0.07
aF-0.56
aF-0.21
aF-0.35
aF-0.77
aF-0.07
aF-0.56
aF-0.07
aF-0.21
aF-0.21
aF-0.14
aF-0.14
aF-0.35
aF-0.28
aF-0.56
aF-0.35
aF-0.35
aF-0.35
aF-0.14
aF-0.49
aF-0.42
aF-0.42
aF-0.49
aF-0.35
aF-0.49
aF-0.42
aF-0.14
aF-0.49
aF-0.42
aF-0.28
aF-0.42
aF-0.7
aF-0.14
aF-0.21
aF-0.28
aF-0.28
aF-0.21
aF-0.28
aF-0.21
aF-0.21
aF-0.14
aF-0.21
aF-0.28
aF-0.35
aF-0.35
aF-0.35
aF-0.21
aF-0.14
aF-0.35
aF-0.35
aF-0.35
aF-0.07
aF0.0
aF0.21
aF0.35
aF0.14
aF0.28
aF0.35
aF0.42
aF0.49
aF0.56
aF0.42
aF0.63
aF0.49
aF0.63
aF0.56
aF0.97
aF0.63
aF0.77
aF0.9
aF0.83
aF0.63
aF0.77
aF0.97
aF0.77
aF0.63
aF0.7
aF0.77
aF0.63
aF0.9
aF0.7
aF0.77
aF0.77
aF0.49
aF0.49
aF0.14
aF0.35
aF0.07
aF0.21
aF0.42
aF0.14
aF0.14
aF0.07
aF0.07
aF0.97
aF0.49
aF0.49
aF0.14
aF0.35
aF0.21
aF0.21
aF0.14
aF0.14
aF0.07
aF0.07
aF0.07
aF0.07
aF0.07
aF0.07
aF0.14
aF0.14
aF0.07
aF0.07
aF0.07
aF0.0
aF0.07
aF0.07
aF0.0
aF0.07
aF0.07
aF0.07
aF0.07
aF0.07
aF0.07
aF0.07
aF0.07
aF0.14
aF0.07
aF0.07
aF0.07
aF0.07
aF0.07
aF0.07
aF0.07
aF0.07
aF0.07
aF0.07
aF0.07
aF0.0
aF0.07
aF0.07
aF0.07
aF0.07
aF0.07
aF0.07
aF0.07
aF0.35
aF0.07
aF0.07
aF0.07
aF0.07
aF0.07
aF0.14
aF0.0
aF0.0
aF0.07
aF0.07
aF0.0
aF0.07
aF0.07
aF0.0
aF0.07
aF0.07
aF0.07
aF0.07
aF0.07
aF0.07
aF0.07
aF0.07
aF0.07
aF0.14
aF0.07
aF0.07
aF0.07
aF0.07
aF-0.21
aF-0.28
aF-0.07
aF0.0
aF0.07
aF0.07
aF0.07
aF0.07
aF0.07
aF0.07
aF0.07
aF0.07
aF0.07
aF0.07
aF0.07
aF0.07
aF0.07
aF0.07
aF0.0
aF0.07
aF0.07
aF0.07
aF0.07
aF0.07
aF0.07
aF0.07
aF0.07
aF0.07
aF0.07
aF0.07
aF0.07
aF0.07
aF0.07
aF0.07
aF0.07
aF0.07
aF0.07
aF0.07
aF0.07
aF0.07
aF0.0
aF0.07
aF0.07
aF0.07
aF0.0
aF0.07
aF0.07
aF0.07
aF0.07
aF0.07
aF0.07
aF0.07
aF0.07
aF0.07
aF0.07
aF0.07
aF0.07
aF0.07
aF0.07
aF0.07
aF0.07
aF0.07
aF0.07
aF0.07
aF0.07
aF0.07
aF0.07
aF0.07
aF0.07
aF0.07
aF0.0
aF0.07
aF0.07
aF0.07
aF0.0
aF0.07
aF0.07
aF0.07
aF0.0
aF0.0
aF0.07
aF0.07
aF0.07
aF0.07
aF0.07
aF0.07
aF0.0
aF0.14
aF0.07
aF0.0
aF0.07
aF0.0
aF0.07
aF0.07
aF0.0
aF0.0
aF0.07
aF0.07
aF0.07
aF0.14
aF0.07
aF0.0
aF0.0
aF0.0
aF0.07
aF0.21
aF0.0
aF0.0
aF0.0
aF-7.37
aF-1.81
aF14.68
aF3.97
aF-10.5
aF-4.73
aF-0.42
aF0.0
aF0.07
aF0.07
aF0.07
aF0.07
aF0.07
aF0.0
aF-0.07
aF0.14
aF0.07
aF0.14
aF0.07
aF0.07
aF0.07
aF0.63
aF-1.04
aF-15.3
aF-54.33
aF-91.13
aF-44.59
aF128.07
aF112.97
aF121.32
aF-48.14
aF-156.52
aF-121.46
aF-2.57
aF126.82
aF94.33
aF70.4
aF-64.7
aF-93.84
aF-14.82
aF43.06
aF73.74
aF32.83
aF-37.98
aF-78.96
aF-59.62
aF64.14
aF53.36
aF69.15
aF29.77
aF-34.57
aF-80.77
aF-88.42
aF-43.9
aF30.33
aF81.46
aF116.38
aF95.3
aF46.61
aF-6.68
aF-50.09
aF-85.22
aF-124.45
aF-108.17
aF-43.76
aF20.45
aF78.26
aF161.6
aF83.41
aF40.9
aF7.3
aF-54.75
aF-132.1
aF-155.76
aF-104.77
aF-14.54
aF88.0
aF134.12
aF79.17
aF129.25
aF79.79
aF23.51
aF-17.11
aF-52.03
aF-106.92
aF-153.32
aF-159.23
aF-61.15
aF-1.81
aF99.27
aF132.8
aF114.43
aF57.6
aF34.23
aF6.54
aF-51.83
aF-101.84
aF-119.1
aF-69.01
aF-37.29
aF81.81
aF150.54
aF131.83
aF84.17
aF6.05
aF-84.17
aF-109.43
aF-125.29
aF-62.75
aF-19.48
aF25.39
aF76.87
aF156.24
aF90.85
aF73.81
aF44.52
aF-37.57
aF-83.2
aF-134.26
aF-130.09
aF-25.81
aF73.11
aF105.88
aF52.17
aF35.34
aF30.54
aF2.85
aF-20.45
aF1.46
aF-20.24
aF-0.63
aF14.33
aF15.17
aF5.29
aF5.08
aF2.5
aF2.23
aF0.83
aF0.14
aF0.07
aF-0.42
aF-0.14
aF0.21
aF0.49
aF0.42
aF0.14
aF0.07
aF0.07
aF0.07
aF0.07
aF0.07
aF0.07
aF0.07
aF0.07
aF0.07
aF0.07
aF0.07
aF0.07
aF0.07
aF0.07
aF0.07
aF0.07
aF0.07
aF0.07
aF0.07
aF0.07
aF0.07
aF0.07
aF0.07
aF0.07
aF0.07
aF0.07
aF0.0
aF0.07
aF0.07
aF0.07
aF0.07
aF0.07
aF0.07
aF0.07
aF0.07
aF0.07
aF0.0
aF0.07
aF0.07
aF0.07
aF0.07
aF0.07
aF0.07
aF0.07
aF0.07
aF0.07
aF0.07
aF0.07
aF0.0
aF0.0
aF0.07
aF0.07
aF0.07
aF0.07
aF0.07
aF0.07
aF0.07
aF0.07
aF0.07
aF0.07
aF0.07
aF0.07
aF0.07
aF0.07
aF0.07
aF0.07
aF0.07
aF0.07
aF0.07
aF0.07
aF0.07
aF0.07
aF0.07
aF0.07
aF0.07
aF0.07
aF0.07
aF0.07
aF0.07
aF0.07
aF0.07
aF0.07
aF0.07
aF0.07
aF0.07
aF0.07
aF0.07
aF0.07
aF0.07
aF0.07
aF0.07
aF0.07
aF0.07
aF0.07
aF0.07
aF0.07
aF0.07
aF0.07
aF0.07
aF0.07
aF0.07
aF0.07
aF0.07
aF0.07
aF0.07
aF0.07
aF0.07
aF0.07
aF0.07
aF0.07
aF0.07
aF0.07
aF0.07
aF0.07
aF0.0
aF0.07
aF0.07
aF0.07
aF0.07
aF0.07
aF0.07
aF0.07
aF0.07
aF0.07
aF0.07
aF0.07
aF0.07
aF0.07
aF0.07
aF0.07
aF0.07
aF0.07
aF0.07
aF0.07
aF0.07
aF0.07
aF0.07
aF0.07
aF0.07
aF0.07
aF0.07
aF0.07
aF0.07
aF0.07
aF0.07
aF0.07
aF0.07
aF0.07
aF0.07
aF0.07
aF0.07
aF0.07
aF0.07
aF0.07
aF0.07
aF0.07
aF0.07
aF0.14
aF0.07
aF0.07
aF0.0
aF0.07
aF0.07
aF0.07
aF0.07
aF0.07
aF0.07
aF0.07
aF0.07
aF0.07
aF0.07
aF0.07
aF0.07
aF0.07
aF0.07
aF0.07
aF0.07
aF0.0
aF0.07
aF0.07
aF0.07
aF0.07
aF0.07
aF0.07
aF0.07
aF0.07
aF0.07
aF0.07
aF0.07
aF0.07
aF0.07
aF0.07
aF0.07
aF0.07
aF0.07
aF0.07
aF0.07
aF0.07
aF0.07
aF0.07
aF0.07
aF0.07
aF0.07
aF0.07
aF0.07
aF0.0
aF0.07
aF0.07
aF0.07
aF0.07
aF0.07
aF0.07
aF0.07
aF0.0
aF0.07
aF0.07
aF0.07
aF0.07
aF0.07
aF0.07
aF0.0
aF0.07
aF0.07
aF0.07
aF0.07
aF0.07
aF0.07
aF0.07
aF0.07
aF0.07
aF0.07
aF0.07
aF0.07
aF0.07
aF0.07
aF0.07
aF0.07
aF0.07
aF0.07
aF0.07
aF0.07
aF0.07
aF0.07
aF0.07
aF0.07
aF0.07
aF0.07
aF0.07
aF0.07
aF0.07
aF0.07
aF0.07
aF0.07
aF0.07
aF0.07
aF0.07
aF0.07
aF0.07
aF0.07
aF0.07
aF0.07
aF0.07
aF0.07
aF0.07
aF0.07
aF0.07
aF0.07
aF0.0
aF0.07
aF0.07
aF0.07
aa(lp8
F209.0
aF210.0
aF211.0
aF212.0
aF214.0
aF209.0
aF212.0
aF210.0
aF211.0
aF214.0
aF211.0
aF213.0
aF210.0
aF211.0
aF208.0
aF212.0
aF212.0
aF211.0
aF212.0
aF212.0
aF218.0
aF213.0
aF208.0
aF208.0
aF211.0
aF210.0
aF213.0
aF212.0
aF214.0
aF213.0
aF213.0
aF212.0
aF214.0
aF212.0
aF213.0
aF211.0
aF212.0
aF212.0
aF211.0
aF210.0
aF214.0
aF209.0
aF209.0
aF211.0
aF212.0
aF213.0
aF211.0
aF212.0
aF210.0
aF211.0
aF211.0
aF212.0
aF208.0
aF211.0
aF212.0
aF211.0
aF211.0
aF213.0
aF212.0
aF214.0
aF211.0
aF209.0
aF212.0
aF215.0
aF210.0
aF212.0
aF212.0
aF212.0
aF213.0
aF213.0
aF210.0
aF208.0
aF213.0
aF208.0
aF206.0
aF212.0
aF209.0
aF212.0
aF209.0
aF211.0
aF214.0
aF213.0
aF209.0
aF209.0
aF210.0
aF210.0
aF213.0
aF213.0
aF210.0
aF209.0
aF213.0
aF210.0
aF215.0
aF214.0
aF210.0
aF210.0
aF211.0
aF212.0
aF212.0
aF209.0
aF212.0
aF213.0
aF203.0
aF199.0
aF194.0
aF196.0
aF194.0
aF198.0
aF199.0
aF197.0
aF198.0
aF199.0
aF194.0
aF198.0
aF197.0
aF194.0
aF201.0
aF200.0
aF199.0
aF197.0
aF202.0
aF201.0
aF200.0
aF204.0
aF197.0
aF196.0
aF195.0
aF198.0
aF199.0
aF195.0
aF198.0
aF200.0
aF198.0
aF199.0
aF197.0
aF196.0
aF195.0
aF200.0
aF197.0
aF195.0
aF199.0
aF202.0
aF195.0
aF199.0
aF197.0
aF199.0
aF199.0
aF199.0
aF196.0
aF197.0
aF197.0
aF196.0
aF196.0
aF197.0
aF196.0
aF197.0
aF197.0
aF198.0
aF201.0
aF197.0
aF196.0
aF197.0
aF197.0
aF194.0
aF197.0
aF196.0
aF199.0
aF201.0
aF196.0
aF197.0
aF196.0
aF197.0
aF199.0
aF193.0
aF200.0
aF198.0
aF199.0
aF196.0
aF201.0
aF201.0
aF196.0
aF198.0
aF199.0
aF197.0
aF199.0
aF196.0
aF199.0
aF202.0
aF198.0
aF195.0
aF198.0
aF198.0
aF192.0
aF196.0
aF197.0
aF198.0
aF200.0
aF195.0
aF194.0
aF198.0
aF195.0
aF198.0
aF198.0
aF196.0
aF196.0
aF198.0
aF195.0
aF196.0
aF199.0
aF198.0
aF196.0
aF195.0
aF198.0
aF197.0
aF200.0
aF194.0
aF199.0
aF200.0
aF197.0
aF198.0
aF197.0
aF200.0
aF193.0
aF196.0
aF202.0
aF196.0
aF199.0
aF197.0
aF196.0
aF201.0
aF197.0
aF201.0
aF197.0
aF203.0
aF208.0
aF211.0
aF210.0
aF210.0
aF216.0
aF209.0
aF211.0
aF209.0
aF212.0
aF212.0
aF208.0
aF208.0
aF207.0
aF211.0
aF211.0
aF210.0
aF213.0
aF207.0
aF208.0
aF210.0
aF208.0
aF209.0
aF210.0
aF211.0
aF209.0
aF212.0
aF210.0
aF211.0
aF217.0
aF209.0
aF213.0
aF211.0
aF209.0
aF212.0
aF211.0
aF210.0
aF209.0
aF211.0
aF212.0
aF211.0
aF210.0
aF211.0
aF211.0
aF209.0
aF211.0
aF211.0
aF212.0
aF215.0
aF212.0
aF210.0
aF210.0
aF208.0
aF208.0
aF211.0
aF207.0
aF209.0
aF210.0
aF205.0
aF207.0
aF211.0
aF207.0
aF208.0
aF209.0
aF208.0
aF209.0
aF208.0
aF206.0
aF207.0
aF210.0
aF208.0
aF204.0
aF204.0
aF205.0
aF205.0
aF209.0
aF206.0
aF207.0
aF206.0
aF207.0
aF209.0
aF204.0
aF204.0
aF205.0
aF207.0
aF204.0
aF206.0
aF206.0
aF203.0
aF205.0
aF205.0
aF206.0
aF204.0
aF203.0
aF204.0
aF208.0
aF203.0
aF202.0
aF203.0
aF200.0
aF203.0
aF203.0
aF201.0
aF202.0
aF203.0
aF201.0
aF200.0
aF203.0
aF202.0
aF201.0
aF200.0
aF200.0
aF199.0
aF201.0
aF202.0
aF199.0
aF203.0
aF200.0
aF198.0
aF200.0
aF200.0
aF199.0
aF203.0
aF198.0
aF201.0
aF198.0
aF199.0
aF198.0
aF201.0
aF198.0
aF202.0
aF200.0
aF201.0
aF204.0
aF203.0
aF202.0
aF203.0
aF204.0
aF205.0
aF204.0
aF207.0
aF206.0
aF206.0
aF209.0
aF207.0
aF206.0
aF204.0
aF206.0
aF208.0
aF208.0
aF209.0
aF207.0
aF211.0
aF211.0
aF209.0
aF207.0
aF210.0
aF208.0
aF209.0
aF207.0
aF211.0
aF210.0
aF207.0
aF207.0
aF209.0
aF209.0
aF210.0
aF209.0
aF210.0
aF209.0
aF209.0
aF212.0
aF211.0
aF210.0
aF211.0
aF212.0
aF207.0
aF209.0
aF208.0
aF207.0
aF206.0
aF208.0
aF210.0
aF211.0
aF209.0
aF211.0
aF209.0
aF207.0
aF211.0
aF209.0
aF211.0
aF210.0
aF207.0
aF207.0
aF210.0
aF211.0
aF209.0
aF210.0
aF209.0
aF209.0
aF208.0
aF209.0
aF211.0
aF209.0
aF209.0
aF207.0
aF209.0
aF210.0
aF208.0
aF210.0
aF210.0
aF209.0
aF211.0
aF212.0
aF210.0
aF206.0
aF213.0
aF210.0
aF210.0
aF211.0
aF210.0
aF211.0
aF209.0
aF209.0
aF209.0
aF211.0
aF210.0
aF209.0
aF210.0
aF210.0
aF210.0
aF210.0
aF209.0
aF209.0
aF210.0
aF211.0
aF209.0
aF208.0
aF210.0
aF208.0
aF209.0
aF211.0
aF211.0
aF210.0
aF209.0
aF210.0
aF210.0
aF209.0
aF210.0
aF211.0
aF210.0
aF208.0
aF211.0
aF213.0
aF206.0
aF213.0
aF209.0
aF209.0
aF209.0
aF211.0
aF207.0
aF211.0
aF208.0
aF210.0
aF213.0
aF210.0
aF211.0
aF210.0
aF212.0
aF210.0
aF208.0
aF211.0
aF210.0
aF211.0
aF208.0
aF208.0
aF211.0
aF209.0
aF211.0
aF207.0
aF213.0
aF208.0
aF210.0
aF212.0
aF209.0
aF209.0
aF211.0
aF208.0
aF209.0
aF209.0
aF208.0
aF209.0
aF211.0
aF210.0
aF213.0
aF207.0
aF209.0
aF205.0
aF211.0
aF210.0
aF212.0
aF212.0
aF208.0
aF210.0
aF208.0
aF208.0
aF210.0
aF211.0
aF208.0
aF210.0
aF209.0
aF212.0
aF211.0
aF211.0
aF206.0
aF212.0
aF210.0
aF208.0
aF208.0
aF207.0
aF213.0
aF208.0
aF212.0
aF207.0
aF208.0
aF209.0
aF208.0
aF206.0
aF209.0
aF209.0
aF210.0
aF208.0
aF208.0
aF210.0
aF210.0
aF213.0
aF209.0
aF212.0
aF208.0
aF212.0
aF208.0
aF210.0
aF209.0
aF213.0
aF209.0
aF210.0
aF208.0
aF209.0
aF208.0
aF213.0
aF208.0
aF209.0
aF211.0
aF209.0
aF211.0
aF208.0
aF208.0
aF208.0
aF212.0
aF209.0
aF209.0
aF207.0
aF209.0
aF210.0
aF208.0
aF206.0
aF206.0
aF207.0
aF205.0
aF209.0
aF208.0
aF209.0
aF209.0
aF208.0
aF203.0
aF183.0
aF164.0
aF152.0
aF196.0
aF212.0
aF208.0
aF188.0
aF163.0
aF158.0
aF167.0
aF185.0
aF197.0
aF200.0
aF192.0
aF180.0
aF179.0
aF182.0
aF194.0
aF197.0
aF191.0
aF185.0
aF184.0
aF190.0
aF183.0
aF172.0
aF150.0
aF143.0
aF140.0
aF150.0
aF156.0
aF182.0
aF200.0
aF206.0
aF199.0
aF183.0
aF159.0
aF144.0
aF130.0
aF120.0
aF123.0
aF134.0
aF156.0
aF179.0
aF195.0
aF179.0
aF168.0
aF153.0
aF139.0
aF122.0
aF101.0
aF100.0
aF116.0
aF145.0
aF191.0
aF207.0
aF208.0
aF201.0
aF193.0
aF181.0
aF161.0
aF138.0
aF119.0
aF98.0
aF108.0
aF147.0
aF168.0
aF190.0
aF195.0
aF186.0
aF174.0
aF168.0
aF151.0
aF125.0
aF120.0
aF124.0
aF143.0
aF165.0
aF184.0
aF189.0
aF189.0
aF183.0
aF165.0
aF129.0
aF118.0
aF121.0
aF135.0
aF164.0
aF187.0
aF206.0
aF205.0
aF203.0
aF195.0
aF165.0
aF149.0
aF131.0
aF126.0
aF142.0
aF157.0
aF180.0
aF189.0
aF188.0
aF194.0
aF194.0
aF191.0
aF197.0
aF200.0
aF202.0
aF206.0
aF212.0
aF211.0
aF212.0
aF210.0
aF209.0
aF212.0
aF213.0
aF214.0
aF209.0
aF214.0
aF211.0
aF213.0
aF211.0
aF213.0
aF210.0
aF212.0
aF212.0
aF212.0
aF215.0
aF212.0
aF212.0
aF211.0
aF214.0
aF211.0
aF210.0
aF213.0
aF213.0
aF213.0
aF213.0
aF214.0
aF213.0
aF213.0
aF212.0
aF211.0
aF212.0
aF213.0
aF211.0
aF211.0
aF212.0
aF214.0
aF211.0
aF210.0
aF213.0
aF211.0
aF212.0
aF213.0
aF211.0
aF213.0
aF213.0
aF213.0
aF215.0
aF211.0
aF211.0
aF209.0
aF212.0
aF213.0
aF211.0
aF214.0
aF213.0
aF213.0
aF212.0
aF210.0
aF213.0
aF211.0
aF213.0
aF215.0
aF212.0
aF210.0
aF209.0
aF213.0
aF214.0
aF212.0
aF210.0
aF211.0
aF212.0
aF214.0
aF208.0
aF210.0
aF213.0
aF212.0
aF212.0
aF211.0
aF212.0
aF211.0
aF211.0
aF210.0
aF212.0
aF215.0
aF214.0
aF210.0
aF210.0
aF212.0
aF215.0
aF211.0
aF214.0
aF214.0
aF209.0
aF210.0
aF212.0
aF213.0
aF209.0
aF212.0
aF214.0
aF209.0
aF210.0
aF210.0
aF215.0
aF213.0
aF211.0
aF212.0
aF212.0
aF214.0
aF210.0
aF213.0
aF212.0
aF214.0
aF214.0
aF212.0
aF213.0
aF211.0
aF210.0
aF214.0
aF210.0
aF210.0
aF214.0
aF214.0
aF213.0
aF214.0
aF214.0
aF212.0
aF215.0
aF215.0
aF214.0
aF212.0
aF214.0
aF212.0
aF212.0
aF212.0
aF215.0
aF212.0
aF211.0
aF211.0
aF213.0
aF213.0
aF213.0
aF214.0
aF210.0
aF212.0
aF212.0
aF211.0
aF212.0
aF216.0
aF214.0
aF212.0
aF213.0
aF214.0
aF210.0
aF215.0
aF210.0
aF209.0
aF210.0
aF212.0
aF211.0
aF213.0
aF213.0
aF213.0
aF212.0
aF212.0
aF213.0
aF213.0
aF210.0
aF211.0
aF214.0
aF213.0
aF214.0
aF213.0
aF214.0
aF212.0
aF209.0
aF210.0
aF210.0
aF212.0
aF213.0
aF209.0
aF212.0
aF215.0
aF213.0
aF214.0
aF213.0
aF212.0
aF212.0
aF213.0
aF211.0
aF211.0
aF209.0
aF210.0
aF213.0
aF214.0
aF213.0
aF212.0
aF215.0
aF211.0
aF213.0
aF210.0
aF212.0
aF210.0
aF212.0
aF212.0
aF215.0
aF210.0
aF211.0
aF212.0
aF215.0
aF210.0
aF216.0
aF216.0
aF212.0
aF214.0
aF212.0
aF213.0
aF214.0
aF211.0
aF212.0
aF212.0
aF211.0
aF213.0
aF213.0
aF210.0
aF216.0
aF214.0
aF213.0
aF213.0
aF211.0
aF213.0
aF211.0
aF213.0
aF212.0
aF212.0
aF214.0
aF212.0
aF212.0
aF211.0
aF212.0
aF214.0
aF210.0
aF209.0
aF214.0
aF213.0
aF214.0
aF212.0
aF213.0
aF215.0
aF215.0
aF213.0
aF212.0
aF211.0
aF212.0
aF213.0
aF214.0
aF213.0
aF213.0
aF209.0
aF211.0
aF213.0
aF215.0
aF212.0
aF215.0
aF212.0
aF213.0
aF211.0
aF214.0
aF211.0
aF216.0
aF211.0
aF215.0
aF212.0
aF215.0
aF210.0
aF211.0
aF212.0
aF211.0
aF213.0
aF216.0
aF215.0
aa(lp9
F180.0
aF180.0
aF180.0
aF182.0
aF180.0
aF177.0
aF182.0
aF178.0
aF179.0
aF178.0
aF181.0
aF181.0
aF180.0
aF180.0
aF179.0
aF178.0
aF179.0
aF178.0
aF180.0
aF180.0
aF181.0
aF179.0
aF176.0
aF180.0
aF178.0
aF181.0
aF183.0
aF181.0
aF179.0
aF178.0
aF181.0
aF182.0
aF178.0
aF179.0
aF182.0
aF179.0
aF179.0
aF179.0
aF182.0
aF180.0
aF182.0
aF180.0
aF180.0
aF180.0
aF177.0
aF182.0
aF178.0
aF179.0
aF183.0
aF179.0
aF180.0
aF182.0
aF180.0
aF182.0
aF179.0
aF181.0
aF178.0
aF180.0
aF181.0
aF180.0
aF181.0
aF180.0
aF179.0
aF181.0
aF183.0
aF180.0
aF179.0
aF182.0
aF180.0
aF179.0
aF180.0
aF181.0
aF180.0
aF178.0
aF181.0
aF178.0
aF181.0
aF177.0
aF179.0
aF182.0
aF178.0
aF179.0
aF178.0
aF181.0
aF180.0
aF181.0
aF180.0
aF180.0
aF180.0
aF179.0
aF176.0
aF183.0
aF181.0
aF177.0
aF181.0
aF178.0
aF177.0
aF182.0
aF182.0
aF178.0
aF181.0
aF180.0
aF251.0
aF260.0
aF263.0
aF268.0
aF264.0
aF266.0
aF268.0
aF268.0
aF266.0
aF266.0
aF264.0
aF269.0
aF267.0
aF265.0
aF268.0
aF265.0
aF267.0
aF266.0
aF269.0
aF267.0
aF269.0
aF267.0
aF269.0
aF262.0
aF266.0
aF265.0
aF265.0
aF263.0
aF266.0
aF264.0
aF267.0
aF267.0
aF268.0
aF265.0
aF268.0
aF265.0
aF266.0
aF264.0
aF265.0
aF267.0
aF265.0
aF264.0
aF263.0
aF268.0
aF263.0
aF266.0
aF268.0
aF264.0
aF265.0
aF267.0
aF266.0
aF267.0
aF265.0
aF266.0
aF266.0
aF267.0
aF265.0
aF267.0
aF268.0
aF265.0
aF266.0
aF265.0
aF265.0
aF266.0
aF266.0
aF267.0
aF265.0
aF267.0
aF267.0
aF266.0
aF269.0
aF265.0
aF266.0
aF265.0
aF265.0
aF266.0
aF268.0
aF265.0
aF266.0
aF267.0
aF266.0
aF264.0
aF264.0
aF267.0
aF267.0
aF266.0
aF267.0
aF264.0
aF267.0
aF266.0
aF267.0
aF265.0
aF265.0
aF268.0
aF267.0
aF266.0
aF265.0
aF265.0
aF263.0
aF265.0
aF266.0
aF265.0
aF266.0
aF265.0
aF267.0
aF265.0
aF267.0
aF262.0
aF263.0
aF264.0
aF265.0
aF265.0
aF266.0
aF265.0
aF267.0
aF267.0
aF269.0
aF265.0
aF265.0
aF265.0
aF266.0
aF266.0
aF265.0
aF265.0
aF265.0
aF266.0
aF264.0
aF264.0
aF264.0
aF267.0
aF265.0
aF245.0
aF206.0
aF190.0
aF184.0
aF181.0
aF184.0
aF180.0
aF182.0
aF184.0
aF182.0
aF185.0
aF183.0
aF181.0
aF184.0
aF183.0
aF185.0
aF180.0
aF185.0
aF186.0
aF184.0
aF185.0
aF181.0
aF184.0
aF183.0
aF184.0
aF185.0
aF184.0
aF182.0
aF182.0
aF186.0
aF184.0
aF184.0
aF183.0
aF183.0
aF187.0
aF185.0
aF183.0
aF184.0
aF185.0
aF183.0
aF184.0
aF184.0
aF186.0
aF187.0
aF184.0
aF183.0
aF184.0
aF186.0
aF186.0
aF187.0
aF187.0
aF190.0
aF192.0
aF197.0
aF196.0
aF200.0
aF203.0
aF202.0
aF205.0
aF206.0
aF208.0
aF208.0
aF209.0
aF213.0
aF213.0
aF217.0
aF219.0
aF220.0
aF220.0
aF224.0
aF222.0
aF224.0
aF223.0
aF228.0
aF230.0
aF231.0
aF229.0
aF227.0
aF232.0
aF232.0
aF232.0
aF236.0
aF236.0
aF236.0
aF239.0
aF238.0
aF241.0
aF242.0
aF242.0
aF247.0
aF246.0
aF250.0
aF246.0
aF246.0
aF250.0
aF252.0
aF252.0
aF254.0
aF254.0
aF257.0
aF256.0
aF254.0
aF257.0
aF258.0
aF256.0
aF259.0
aF258.0
aF258.0
aF261.0
aF258.0
aF262.0
aF262.0
aF262.0
aF261.0
aF263.0
aF264.0
aF264.0
aF264.0
aF265.0
aF266.0
aF266.0
aF263.0
aF264.0
aF263.0
aF262.0
aF261.0
aF263.0
aF260.0
aF258.0
aF260.0
aF257.0
aF257.0
aF255.0
aF255.0
aF254.0
aF253.0
aF251.0
aF247.0
aF243.0
aF243.0
aF239.0
aF237.0
aF234.0
aF233.0
aF231.0
aF227.0
aF224.0
aF225.0
aF219.0
aF218.0
aF213.0
aF212.0
aF212.0
aF211.0
aF212.0
aF209.0
aF211.0
aF208.0
aF209.0
aF212.0
aF205.0
aF200.0
aF201.0
aF201.0
aF199.0
aF198.0
aF196.0
aF198.0
aF196.0
aF198.0
aF195.0
aF194.0
aF196.0
aF197.0
aF196.0
aF199.0
aF196.0
aF196.0
aF197.0
aF196.0
aF197.0
aF195.0
aF200.0
aF196.0
aF201.0
aF198.0
aF195.0
aF193.0
aF196.0
aF196.0
aF197.0
aF195.0
aF197.0
aF194.0
aF198.0
aF199.0
aF198.0
aF195.0
aF196.0
aF195.0
aF197.0
aF196.0
aF198.0
aF198.0
aF197.0
aF199.0
aF194.0
aF197.0
aF194.0
aF198.0
aF193.0
aF196.0
aF195.0
aF195.0
aF195.0
aF197.0
aF196.0
aF198.0
aF196.0
aF196.0
aF198.0
aF198.0
aF196.0
aF196.0
aF196.0
aF195.0
aF200.0
aF197.0
aF196.0
aF197.0
aF194.0
aF194.0
aF195.0
aF197.0
aF197.0
aF199.0
aF198.0
aF196.0
aF196.0
aF195.0
aF197.0
aF196.0
aF201.0
aF199.0
aF199.0
aF199.0
aF201.0
aF200.0
aF200.0
aF200.0
aF202.0
aF201.0
aF203.0
aF202.0
aF201.0
aF201.0
aF199.0
aF203.0
aF196.0
aF199.0
aF202.0
aF200.0
aF200.0
aF202.0
aF202.0
aF201.0
aF202.0
aF198.0
aF202.0
aF199.0
aF197.0
aF200.0
aF200.0
aF200.0
aF200.0
aF198.0
aF200.0
aF201.0
aF201.0
aF199.0
aF201.0
aF199.0
aF197.0
aF197.0
aF199.0
aF199.0
aF199.0
aF200.0
aF202.0
aF200.0
aF202.0
aF199.0
aF200.0
aF200.0
aF200.0
aF200.0
aF200.0
aF201.0
aF201.0
aF202.0
aF201.0
aF202.0
aF202.0
aF200.0
aF199.0
aF202.0
aF198.0
aF199.0
aF200.0
aF201.0
aF201.0
aF201.0
aF200.0
aF201.0
aF198.0
aF199.0
aF199.0
aF200.0
aF198.0
aF197.0
aF201.0
aF200.0
aF200.0
aF202.0
aF201.0
aF202.0
aF200.0
aF200.0
aF198.0
aF199.0
aF197.0
aF201.0
aF201.0
aF200.0
aF201.0
aF201.0
aF202.0
aF200.0
aF201.0
aF201.0
aF199.0
aF200.0
aF201.0
aF199.0
aF204.0
aF198.0
aF199.0
aF199.0
aF202.0
aF198.0
aF203.0
aF244.0
aF189.0
aF156.0
aF188.0
aF231.0
aF236.0
aF234.0
aF239.0
aF236.0
aF236.0
aF235.0
aF235.0
aF238.0
aF236.0
aF235.0
aF236.0
aF236.0
aF236.0
aF237.0
aF235.0
aF237.0
aF231.0
aF232.0
aF228.0
aF242.0
aF255.0
aF257.0
aF203.0
aF180.0
aF181.0
aF213.0
aF235.0
aF250.0
aF232.0
aF210.0
aF188.0
aF186.0
aF201.0
aF220.0
aF212.0
aF205.0
aF194.0
aF195.0
aF212.0
aF222.0
aF224.0
aF208.0
aF205.0
aF198.0
aF211.0
aF229.0
aF242.0
aF239.0
aF241.0
aF219.0
aF200.0
aF183.0
aF175.0
aF175.0
aF201.0
aF217.0
aF236.0
aF250.0
aF254.0
aF250.0
aF241.0
aF226.0
aF201.0
aF200.0
aF206.0
aF216.0
aF238.0
aF256.0
aF267.0
aF262.0
aF255.0
aF245.0
aF201.0
aF181.0
aF173.0
aF166.0
aF177.0
aF196.0
aF219.0
aF235.0
aF260.0
aF271.0
aF269.0
aF252.0
aF234.0
aF209.0
aF195.0
aF196.0
aF199.0
aF212.0
aF228.0
aF259.0
aF265.0
aF261.0
aF252.0
aF231.0
aF210.0
aF199.0
aF198.0
aF206.0
aF225.0
aF262.0
aF270.0
aF261.0
aF262.0
aF243.0
aF229.0
aF207.0
aF197.0
aF192.0
aF196.0
aF223.0
aF239.0
aF258.0
aF264.0
aF258.0
aF237.0
aF218.0
aF216.0
aF213.0
aF217.0
aF219.0
aF228.0
aF227.0
aF231.0
aF229.0
aF224.0
aF223.0
aF220.0
aF222.0
aF221.0
aF224.0
aF222.0
aF223.0
aF220.0
aF224.0
aF222.0
aF223.0
aF223.0
aF222.0
aF222.0
aF222.0
aF220.0
aF221.0
aF224.0
aF219.0
aF220.0
aF220.0
aF221.0
aF221.0
aF221.0
aF223.0
aF221.0
aF220.0
aF220.0
aF223.0
aF222.0
aF219.0
aF224.0
aF221.0
aF222.0
aF220.0
aF223.0
aF220.0
aF219.0
aF223.0
aF224.0
aF222.0
aF222.0
aF218.0
aF220.0
aF222.0
aF226.0
aF222.0
aF220.0
aF218.0
aF222.0
aF221.0
aF224.0
aF222.0
aF220.0
aF221.0
aF222.0
aF223.0
aF221.0
aF221.0
aF224.0
aF222.0
aF222.0
aF222.0
aF221.0
aF219.0
aF219.0
aF219.0
aF222.0
aF221.0
aF221.0
aF218.0
aF222.0
aF220.0
aF219.0
aF221.0
aF223.0
aF225.0
aF220.0
aF220.0
aF222.0
aF220.0
aF220.0
aF218.0
aF219.0
aF221.0
aF221.0
aF226.0
aF223.0
aF221.0
aF224.0
aF218.0
aF223.0
aF219.0
aF220.0
aF220.0
aF223.0
aF220.0
aF222.0
aF223.0
aF222.0
aF222.0
aF220.0
aF222.0
aF220.0
aF222.0
aF223.0
aF220.0
aF221.0
aF219.0
aF222.0
aF219.0
aF220.0
aF223.0
aF221.0
aF224.0
aF221.0
aF221.0
aF223.0
aF219.0
aF221.0
aF221.0
aF221.0
aF223.0
aF222.0
aF220.0
aF221.0
aF222.0
aF222.0
aF222.0
aF222.0
aF220.0
aF221.0
aF223.0
aF222.0
aF220.0
aF222.0
aF222.0
aF224.0
aF221.0
aF220.0
aF219.0
aF224.0
aF218.0
aF223.0
aF224.0
aF220.0
aF222.0
aF221.0
aF222.0
aF217.0
aF225.0
aF223.0
aF223.0
aF218.0
aF221.0
aF221.0
aF224.0
aF222.0
aF221.0
aF221.0
aF222.0
aF222.0
aF224.0
aF221.0
aF222.0
aF225.0
aF219.0
aF223.0
aF219.0
aF223.0
aF223.0
aF223.0
aF220.0
aF221.0
aF220.0
aF222.0
aF221.0
aF224.0
aF221.0
aF221.0
aF221.0
aF222.0
aF222.0
aF220.0
aF223.0
aF218.0
aF221.0
aF223.0
aF220.0
aF223.0
aF222.0
aF220.0
aF220.0
aF221.0
aF223.0
aF221.0
aF222.0
aF219.0
aF224.0
aF221.0
aF223.0
aF221.0
aF221.0
aF222.0
aF221.0
aF220.0
aF223.0
aF223.0
aF221.0
aF222.0
aF221.0
aF220.0
aF223.0
aF222.0
aF223.0
aF220.0
aF219.0
aF220.0
aF223.0
aF220.0
aF222.0
aF220.0
aF221.0
aF220.0
aF221.0
aF223.0
aF221.0
aF220.0
aF220.0
aF222.0
aF221.0
aF223.0
aF220.0
aF220.0
aF220.0
aF223.0
aF220.0
aF221.0
aF222.0
aF220.0
aF221.0
aF221.0
aF221.0
aF223.0
aF221.0
aF221.0
aF221.0
aF223.0
aF221.0
aF221.0
aF221.0
aF219.0
aF221.0
aF225.0
aF222.0
aF221.0
aF219.0
aF220.0
aF220.0
aF220.0
aF221.0
aF224.0
aF223.0
aF223.0
aF221.0
aF221.0
aF221.0
aF221.0
aF220.0
aF223.0
aF222.0
aF221.0
aF221.0
aF220.0
aF221.0
aF221.0
aF223.0
aF221.0
aF223.0
aF223.0
aF221.0
aF220.0
aF221.0
aF222.0
aa(lp10
F-267.0
aF-268.0
aF-265.0
aF-268.0
aF-264.0
aF-266.0
aF-267.0
aF-268.0
aF-266.0
aF-270.0
aF-267.0
aF-268.0
aF-269.0
aF-266.0
aF-266.0
aF-267.0
aF-264.0
aF-266.0
aF-264.0
aF-269.0
aF-268.0
aF-267.0
aF-265.0
aF-267.0
aF-270.0
aF-269.0
aF-268.0
aF-266.0
aF-268.0
aF-266.0
aF-269.0
aF-269.0
aF-266.0
aF-269.0
aF-267.0
aF-266.0
aF-266.0
aF-271.0
aF-264.0
aF-269.0
aF-267.0
aF-268.0
aF-269.0
aF-267.0
aF-266.0
aF-266.0
aF-265.0
aF-266.0
aF-267.0
aF-266.0
aF-266.0
aF-268.0
aF-269.0
aF-268.0
aF-269.0
aF-267.0
aF-268.0
aF-267.0
aF-269.0
aF-266.0
aF-267.0
aF-265.0
aF-267.0
aF-268.0
aF-265.0
aF-267.0
aF-266.0
aF-267.0
aF-267.0
aF-268.0
aF-263.0
aF-265.0
aF-267.0
aF-267.0
aF-266.0
aF-267.0
aF-266.0
aF-264.0
aF-266.0
aF-266.0
aF-267.0
aF-268.0
aF-268.0
aF-267.0
aF-266.0
aF-270.0
aF-268.0
aF-268.0
aF-267.0
aF-267.0
aF-268.0
aF-265.0
aF-267.0
aF-267.0
aF-267.0
aF-270.0
aF-267.0
aF-268.0
aF-267.0
aF-267.0
aF-268.0
aF-267.0
aF-193.0
aF-172.0
aF-163.0
aF-161.0
aF-158.0
aF-157.0
aF-154.0
aF-156.0
aF-157.0
aF-159.0
aF-159.0
aF-156.0
aF-160.0
aF-159.0
aF-159.0
aF-160.0
aF-158.0
aF-158.0
aF-158.0
aF-158.0
aF-157.0
aF-159.0
aF-159.0
aF-155.0
aF-158.0
aF-158.0
aF-157.0
aF-155.0
aF-158.0
aF-156.0
aF-156.0
aF-156.0
aF-159.0
aF-158.0
aF-156.0
aF-158.0
aF-157.0
aF-158.0
aF-159.0
aF-160.0
aF-157.0
aF-156.0
aF-157.0
aF-158.0
aF-158.0
aF-157.0
aF-156.0
aF-156.0
aF-159.0
aF-157.0
aF-157.0
aF-157.0
aF-158.0
aF-157.0
aF-157.0
aF-157.0
aF-158.0
aF-158.0
aF-158.0
aF-157.0
aF-157.0
aF-158.0
aF-157.0
aF-158.0
aF-158.0
aF-157.0
aF-158.0
aF-155.0
aF-158.0
aF-156.0
aF-155.0
aF-157.0
aF-155.0
aF-160.0
aF-157.0
aF-159.0
aF-158.0
aF-155.0
aF-159.0
aF-161.0
aF-157.0
aF-156.0
aF-160.0
aF-158.0
aF-159.0
aF-160.0
aF-155.0
aF-155.0
aF-159.0
aF-158.0
aF-157.0
aF-158.0
aF-160.0
aF-158.0
aF-156.0
aF-158.0
aF-157.0
aF-158.0
aF-154.0
aF-159.0
aF-160.0
aF-156.0
aF-159.0
aF-157.0
aF-157.0
aF-155.0
aF-156.0
aF-159.0
aF-159.0
aF-157.0
aF-157.0
aF-159.0
aF-157.0
aF-157.0
aF-156.0
aF-158.0
aF-157.0
aF-156.0
aF-156.0
aF-157.0
aF-157.0
aF-158.0
aF-156.0
aF-155.0
aF-160.0
aF-159.0
aF-160.0
aF-158.0
aF-158.0
aF-157.0
aF-159.0
aF-205.0
aF-244.0
aF-259.0
aF-263.0
aF-265.0
aF-265.0
aF-263.0
aF-261.0
aF-266.0
aF-264.0
aF-264.0
aF-262.0
aF-265.0
aF-263.0
aF-264.0
aF-263.0
aF-264.0
aF-265.0
aF-263.0
aF-263.0
aF-264.0
aF-261.0
aF-265.0
aF-264.0
aF-264.0
aF-264.0
aF-266.0
aF-262.0
aF-263.0
aF-261.0
aF-261.0
aF-265.0
aF-265.0
aF-264.0
aF-265.0
aF-262.0
aF-266.0
aF-264.0
aF-265.0
aF-265.0
aF-264.0
aF-264.0
aF-263.0
aF-264.0
aF-265.0
aF-264.0
aF-265.0
aF-263.0
aF-266.0
aF-262.0
aF-260.0
aF-259.0
aF-257.0
aF-257.0
aF-252.0
aF-254.0
aF-250.0
aF-249.0
aF-248.0
aF-249.0
aF-248.0
aF-247.0
aF-242.0
aF-243.0
aF-241.0
aF-236.0
aF-237.0
aF-233.0
aF-234.0
aF-235.0
aF-228.0
aF-228.0
aF-228.0
aF-227.0
aF-226.0
aF-223.0
aF-226.0
aF-222.0
aF-221.0
aF-220.0
aF-217.0
aF-218.0
aF-215.0
aF-217.0
aF-214.0
aF-213.0
aF-207.0
aF-209.0
aF-204.0
aF-204.0
aF-197.0
aF-200.0
aF-198.0
aF-196.0
aF-195.0
aF-195.0
aF-189.0
aF-186.0
aF-185.0
aF-183.0
aF-183.0
aF-184.0
aF-183.0
aF-179.0
aF-178.0
aF-176.0
aF-176.0
aF-175.0
aF-173.0
aF-172.0
aF-171.0
aF-172.0
aF-168.0
aF-169.0
aF-166.0
aF-164.0
aF-161.0
aF-159.0
aF-158.0
aF-161.0
aF-160.0
aF-160.0
aF-164.0
aF-162.0
aF-163.0
aF-166.0
aF-172.0
aF-173.0
aF-173.0
aF-177.0
aF-179.0
aF-178.0
aF-181.0
aF-188.0
aF-189.0
aF-191.0
aF-196.0
aF-200.0
aF-206.0
aF-210.0
aF-209.0
aF-216.0
aF-219.0
aF-222.0
aF-226.0
aF-228.0
aF-230.0
aF-233.0
aF-234.0
aF-236.0
aF-241.0
aF-243.0
aF-243.0
aF-245.0
aF-247.0
aF-248.0
aF-248.0
aF-247.0
aF-245.0
aF-247.0
aF-247.0
aF-254.0
aF-253.0
aF-255.0
aF-254.0
aF-255.0
aF-257.0
aF-256.0
aF-258.0
aF-254.0
aF-256.0
aF-256.0
aF-256.0
aF-258.0
aF-254.0
aF-257.0
aF-256.0
aF-254.0
aF-253.0
aF-257.0
aF-257.0
aF-258.0
aF-257.0
aF-257.0
aF-257.0
aF-258.0
aF-254.0
aF-254.0
aF-256.0
aF-256.0
aF-255.0
aF-257.0
aF-257.0
aF-258.0
aF-258.0
aF-257.0
aF-258.0
aF-256.0
aF-253.0
aF-257.0
aF-256.0
aF-256.0
aF-257.0
aF-256.0
aF-256.0
aF-255.0
aF-256.0
aF-256.0
aF-257.0
aF-256.0
aF-254.0
aF-255.0
aF-257.0
aF-257.0
aF-258.0
aF-257.0
aF-256.0
aF-257.0
aF-257.0
aF-256.0
aF-255.0
aF-256.0
aF-257.0
aF-258.0
aF-254.0
aF-255.0
aF-255.0
aF-256.0
aF-255.0
aF-256.0
aF-255.0
aF-259.0
aF-258.0
aF-255.0
aF-255.0
aF-257.0
aF-257.0
aF-255.0
aF-257.0
aF-257.0
aF-254.0
aF-256.0
aF-256.0
aF-254.0
aF-253.0
aF-253.0
aF-255.0
aF-252.0
aF-256.0
aF-255.0
aF-253.0
aF-255.0
aF-256.0
aF-253.0
aF-255.0
aF-255.0
aF-253.0
aF-254.0
aF-251.0
aF-254.0
aF-252.0
aF-253.0
aF-252.0
aF-252.0
aF-253.0
aF-254.0
aF-253.0
aF-252.0
aF-254.0
aF-255.0
aF-253.0
aF-255.0
aF-255.0
aF-253.0
aF-254.0
aF-253.0
aF-254.0
aF-253.0
aF-253.0
aF-256.0
aF-252.0
aF-256.0
aF-253.0
aF-253.0
aF-252.0
aF-253.0
aF-254.0
aF-255.0
aF-255.0
aF-254.0
aF-255.0
aF-254.0
aF-253.0
aF-252.0
aF-252.0
aF-252.0
aF-254.0
aF-253.0
aF-255.0
aF-253.0
aF-254.0
aF-252.0
aF-253.0
aF-251.0
aF-258.0
aF-254.0
aF-254.0
aF-254.0
aF-255.0
aF-253.0
aF-253.0
aF-253.0
aF-254.0
aF-251.0
aF-253.0
aF-253.0
aF-256.0
aF-255.0
aF-254.0
aF-253.0
aF-255.0
aF-253.0
aF-252.0
aF-256.0
aF-252.0
aF-252.0
aF-253.0
aF-252.0
aF-254.0
aF-252.0
aF-254.0
aF-252.0
aF-253.0
aF-256.0
aF-255.0
aF-254.0
aF-254.0
aF-254.0
aF-255.0
aF-252.0
aF-255.0
aF-255.0
aF-252.0
aF-253.0
aF-253.0
aF-253.0
aF-254.0
aF-252.0
aF-254.0
aF-255.0
aF-251.0
aF-202.0
aF-264.0
aF-282.0
aF-265.0
aF-225.0
aF-217.0
aF-219.0
aF-218.0
aF-217.0
aF-216.0
aF-216.0
aF-217.0
aF-216.0
aF-219.0
aF-215.0
aF-218.0
aF-216.0
aF-218.0
aF-219.0
aF-219.0
aF-218.0
aF-224.0
aF-225.0
aF-230.0
aF-229.0
aF-231.0
aF-236.0
aF-247.0
aF-251.0
aF-252.0
aF-247.0
aF-242.0
aF-240.0
aF-247.0
aF-250.0
aF-256.0
aF-258.0
aF-253.0
aF-248.0
aF-251.0
aF-257.0
aF-258.0
aF-250.0
aF-246.0
aF-243.0
aF-239.0
aF-246.0
aF-257.0
aF-263.0
aF-264.0
aF-255.0
aF-249.0
aF-243.0
aF-239.0
aF-240.0
aF-237.0
aF-244.0
aF-255.0
aF-265.0
aF-263.0
aF-261.0
aF-253.0
aF-245.0
aF-241.0
aF-244.0
aF-238.0
aF-240.0
aF-247.0
aF-257.0
aF-257.0
aF-255.0
aF-248.0
aF-239.0
aF-235.0
aF-241.0
aF-248.0
aF-251.0
aF-244.0
aF-253.0
aF-255.0
aF-257.0
aF-262.0
aF-261.0
aF-254.0
aF-250.0
aF-243.0
aF-236.0
aF-238.0
aF-237.0
aF-241.0
aF-243.0
aF-250.0
aF-255.0
aF-258.0
aF-258.0
aF-254.0
aF-239.0
aF-234.0
aF-240.0
aF-240.0
aF-246.0
aF-252.0
aF-254.0
aF-255.0
aF-255.0
aF-249.0
aF-235.0
aF-233.0
aF-237.0
aF-236.0
aF-232.0
aF-229.0
aF-235.0
aF-242.0
aF-246.0
aF-247.0
aF-248.0
aF-244.0
aF-239.0
aF-238.0
aF-241.0
aF-244.0
aF-248.0
aF-247.0
aF-247.0
aF-244.0
aF-242.0
aF-241.0
aF-237.0
aF-237.0
aF-236.0
aF-241.0
aF-240.0
aF-235.0
aF-239.0
aF-236.0
aF-239.0
aF-237.0
aF-236.0
aF-238.0
aF-237.0
aF-236.0
aF-234.0
aF-235.0
aF-235.0
aF-238.0
aF-237.0
aF-236.0
aF-235.0
aF-238.0
aF-234.0
aF-236.0
aF-238.0
aF-236.0
aF-237.0
aF-238.0
aF-235.0
aF-235.0
aF-237.0
aF-236.0
aF-233.0
aF-235.0
aF-238.0
aF-233.0
aF-235.0
aF-236.0
aF-237.0
aF-236.0
aF-236.0
aF-236.0
aF-233.0
aF-239.0
aF-236.0
aF-236.0
aF-235.0
aF-238.0
aF-235.0
aF-236.0
aF-233.0
aF-237.0
aF-236.0
aF-235.0
aF-236.0
aF-235.0
aF-236.0
aF-236.0
aF-237.0
aF-236.0
aF-236.0
aF-233.0
aF-235.0
aF-237.0
aF-233.0
aF-234.0
aF-234.0
aF-236.0
aF-237.0
aF-236.0
aF-235.0
aF-234.0
aF-234.0
aF-236.0
aF-233.0
aF-237.0
aF-236.0
aF-235.0
aF-238.0
aF-237.0
aF-237.0
aF-235.0
aF-237.0
aF-235.0
aF-236.0
aF-237.0
aF-235.0
aF-234.0
aF-237.0
aF-235.0
aF-235.0
aF-237.0
aF-235.0
aF-238.0
aF-235.0
aF-235.0
aF-236.0
aF-235.0
aF-237.0
aF-236.0
aF-237.0
aF-236.0
aF-236.0
aF-235.0
aF-236.0
aF-238.0
aF-235.0
aF-237.0
aF-236.0
aF-235.0
aF-236.0
aF-235.0
aF-236.0
aF-236.0
aF-235.0
aF-236.0
aF-236.0
aF-238.0
aF-236.0
aF-239.0
aF-237.0
aF-234.0
aF-236.0
aF-234.0
aF-234.0
aF-239.0
aF-234.0
aF-237.0
aF-239.0
aF-238.0
aF-237.0
aF-237.0
aF-238.0
aF-238.0
aF-234.0
aF-239.0
aF-238.0
aF-236.0
aF-237.0
aF-238.0
aF-236.0
aF-236.0
aF-234.0
aF-236.0
aF-236.0
aF-237.0
aF-235.0
aF-236.0
aF-235.0
aF-236.0
aF-237.0
aF-236.0
aF-235.0
aF-237.0
aF-234.0
aF-237.0
aF-234.0
aF-237.0
aF-237.0
aF-236.0
aF-236.0
aF-235.0
aF-228.0
aF-236.0
aF-234.0
aF-234.0
aF-234.0
aF-236.0
aF-236.0
aF-238.0
aF-236.0
aF-237.0
aF-237.0
aF-235.0
aF-235.0
aF-238.0
aF-236.0
aF-236.0
aF-238.0
aF-235.0
aF-236.0
aF-233.0
aF-236.0
aF-235.0
aF-234.0
aF-233.0
aF-234.0
aF-237.0
aF-236.0
aF-237.0
aF-235.0
aF-235.0
aF-237.0
aF-237.0
aF-235.0
aF-232.0
aF-236.0
aF-236.0
aF-238.0
aF-235.0
aF-236.0
aF-237.0
aF-237.0
aF-234.0
aF-239.0
aF-237.0
aF-233.0
aF-238.0
aF-235.0
aF-236.0
aF-235.0
aF-235.0
aF-235.0
aF-237.0
aF-236.0
aF-237.0
aF-235.0
aF-235.0
aF-238.0
aF-238.0
aF-237.0
aF-236.0
aF-235.0
aF-236.0
aF-236.0
aF-236.0
aF-235.0
aF-237.0
aF-230.0
aF-235.0
aF-234.0
aF-236.0
aF-235.0
aF-235.0
aF-236.0
aF-236.0
aF-235.0
aF-236.0
aF-238.0
aF-233.0
aF-239.0
aF-238.0
aF-235.0
aF-236.0
aF-238.0
aF-236.0
aF-233.0
aF-234.0
aF-238.0
aF-237.0
aF-235.0
aF-237.0
aF-239.0
aF-237.0
aF-234.0
aF-238.0
aF-237.0
aF-236.0
aF-234.0
aF-237.0
aF-234.0
aF-238.0
aF-237.0
aF-239.0
aF-238.0
aF-236.0
aF-236.0
aF-236.0
aF-234.0
aF-235.0
aF-236.0
aF-235.0
aF-236.0
aF-233.0
aF-235.0
aF-235.0
aF-237.0
aF-240.0
aF-235.0
aF-234.0
aF-237.0
aF-235.0
aF-240.0
aF-237.0
aF-235.0
aF-235.0
aF-234.0
aF-236.0
aa.